---
triple:          'arm64-apple-darwin'
binary-path:     main
relocations:
  - { offsetInCU: 0x3B, offset: 0x3B, size: 0x8, addend: 0x0, symName: _.str, symObjAddr: 0xB180, symBinAddr: 0x10003E220, symSize: 0x0 }
  - { offsetInCU: 0x6B, offset: 0x6B, size: 0x8, addend: 0x0, symName: _.str.1, symObjAddr: 0xB1C0, symBinAddr: 0x10003E260, symSize: 0x0 }
  - { offsetInCU: 0x88, offset: 0x88, size: 0x8, addend: 0x0, symName: _.str.2, symObjAddr: 0xB220, symBinAddr: 0x10003E2C0, symSize: 0x0 }
  - { offsetInCU: 0xA5, offset: 0xA5, size: 0x8, addend: 0x0, symName: _.str.3, symObjAddr: 0xB240, symBinAddr: 0x10003E2E0, symSize: 0x0 }
  - { offsetInCU: 0xC2, offset: 0xC2, size: 0x8, addend: 0x0, symName: _.str.4, symObjAddr: 0xB2A0, symBinAddr: 0x10003E340, symSize: 0x0 }
  - { offsetInCU: 0xDF, offset: 0xDF, size: 0x8, addend: 0x0, symName: _.str.5, symObjAddr: 0xB2E0, symBinAddr: 0x10003E380, symSize: 0x0 }
  - { offsetInCU: 0x11F, offset: 0x11F, size: 0x8, addend: 0x0, symName: _.str.6, symObjAddr: 0xB340, symBinAddr: 0x10003E3E0, symSize: 0x0 }
  - { offsetInCU: 0x13C, offset: 0x13C, size: 0x8, addend: 0x0, symName: _.str.7, symObjAddr: 0xB3A0, symBinAddr: 0x10003E440, symSize: 0x0 }
  - { offsetInCU: 0x159, offset: 0x159, size: 0x8, addend: 0x0, symName: _.str.8, symObjAddr: 0xB400, symBinAddr: 0x10003E4A0, symSize: 0x0 }
  - { offsetInCU: 0x176, offset: 0x176, size: 0x8, addend: 0x0, symName: _.str.9, symObjAddr: 0xB440, symBinAddr: 0x10003E4E0, symSize: 0x0 }
  - { offsetInCU: 0x193, offset: 0x193, size: 0x8, addend: 0x0, symName: _.str.10, symObjAddr: 0xB460, symBinAddr: 0x10003E500, symSize: 0x0 }
  - { offsetInCU: 0x1B0, offset: 0x1B0, size: 0x8, addend: 0x0, symName: _.str.11, symObjAddr: 0xB4C0, symBinAddr: 0x10003E560, symSize: 0x0 }
  - { offsetInCU: 0x1CD, offset: 0x1CD, size: 0x8, addend: 0x0, symName: _.str.12, symObjAddr: 0xB500, symBinAddr: 0x10003E5A0, symSize: 0x0 }
  - { offsetInCU: 0x1EA, offset: 0x1EA, size: 0x8, addend: 0x0, symName: _.str.13, symObjAddr: 0xB540, symBinAddr: 0x10003E5E0, symSize: 0x0 }
  - { offsetInCU: 0x213, offset: 0x213, size: 0x8, addend: 0x0, symName: _.str.14, symObjAddr: 0xB5A0, symBinAddr: 0x10003E640, symSize: 0x0 }
  - { offsetInCU: 0x230, offset: 0x230, size: 0x8, addend: 0x0, symName: _.str.15, symObjAddr: 0xB600, symBinAddr: 0x10003E6A0, symSize: 0x0 }
  - { offsetInCU: 0x24D, offset: 0x24D, size: 0x8, addend: 0x0, symName: _.str.16, symObjAddr: 0xB660, symBinAddr: 0x10003E700, symSize: 0x0 }
  - { offsetInCU: 0x25E, offset: 0x25E, size: 0x8, addend: 0x0, symName: _.str.17, symObjAddr: 0xB6C0, symBinAddr: 0x10003E760, symSize: 0x0 }
  - { offsetInCU: 0x26F, offset: 0x26F, size: 0x8, addend: 0x0, symName: _.str.18, symObjAddr: 0xB700, symBinAddr: 0x10003E7A0, symSize: 0x0 }
  - { offsetInCU: 0x280, offset: 0x280, size: 0x8, addend: 0x0, symName: _.str.19, symObjAddr: 0xB740, symBinAddr: 0x10003E7E0, symSize: 0x0 }
  - { offsetInCU: 0x291, offset: 0x291, size: 0x8, addend: 0x0, symName: _.str.20, symObjAddr: 0xB7A0, symBinAddr: 0x10003E840, symSize: 0x0 }
  - { offsetInCU: 0x2A2, offset: 0x2A2, size: 0x8, addend: 0x0, symName: _.str.21, symObjAddr: 0xB7E0, symBinAddr: 0x10003E880, symSize: 0x0 }
  - { offsetInCU: 0x2B3, offset: 0x2B3, size: 0x8, addend: 0x0, symName: _.str.22, symObjAddr: 0xB820, symBinAddr: 0x10003E8C0, symSize: 0x0 }
  - { offsetInCU: 0x2C4, offset: 0x2C4, size: 0x8, addend: 0x0, symName: _.str.23, symObjAddr: 0xB880, symBinAddr: 0x10003E920, symSize: 0x0 }
  - { offsetInCU: 0x2E1, offset: 0x2E1, size: 0x8, addend: 0x0, symName: _.str.24, symObjAddr: 0xB8A0, symBinAddr: 0x10003E940, symSize: 0x0 }
  - { offsetInCU: 0x2F2, offset: 0x2F2, size: 0x8, addend: 0x0, symName: _.str.25, symObjAddr: 0xB8C0, symBinAddr: 0x10003E960, symSize: 0x0 }
  - { offsetInCU: 0x30F, offset: 0x30F, size: 0x8, addend: 0x0, symName: _.str.26, symObjAddr: 0xB920, symBinAddr: 0x10003E9C0, symSize: 0x0 }
  - { offsetInCU: 0x32C, offset: 0x32C, size: 0x8, addend: 0x0, symName: _.str.27, symObjAddr: 0xB940, symBinAddr: 0x10003E9E0, symSize: 0x0 }
  - { offsetInCU: 0x349, offset: 0x349, size: 0x8, addend: 0x0, symName: _.str.28, symObjAddr: 0xB960, symBinAddr: 0x10003EA00, symSize: 0x0 }
  - { offsetInCU: 0x366, offset: 0x366, size: 0x8, addend: 0x0, symName: _.str.29, symObjAddr: 0xB980, symBinAddr: 0x10003EA20, symSize: 0x0 }
  - { offsetInCU: 0x383, offset: 0x383, size: 0x8, addend: 0x0, symName: _.str.30, symObjAddr: 0xB9C0, symBinAddr: 0x10003EA60, symSize: 0x0 }
  - { offsetInCU: 0x3AC, offset: 0x3AC, size: 0x8, addend: 0x0, symName: _.str.31, symObjAddr: 0xBA20, symBinAddr: 0x10003EAC0, symSize: 0x0 }
  - { offsetInCU: 0x3C9, offset: 0x3C9, size: 0x8, addend: 0x0, symName: _.str.32, symObjAddr: 0xBA60, symBinAddr: 0x10003EB00, symSize: 0x0 }
  - { offsetInCU: 0x3DA, offset: 0x3DA, size: 0x8, addend: 0x0, symName: _.str.33, symObjAddr: 0xBA80, symBinAddr: 0x10003EB20, symSize: 0x0 }
  - { offsetInCU: 0x3EB, offset: 0x3EB, size: 0x8, addend: 0x0, symName: _.str.34, symObjAddr: 0xBAE0, symBinAddr: 0x10003EB80, symSize: 0x0 }
  - { offsetInCU: 0x3FC, offset: 0x3FC, size: 0x8, addend: 0x0, symName: _.str.35, symObjAddr: 0xBB00, symBinAddr: 0x10003EBA0, symSize: 0x0 }
  - { offsetInCU: 0x40D, offset: 0x40D, size: 0x8, addend: 0x0, symName: _.str.36, symObjAddr: 0xBB60, symBinAddr: 0x10003EC00, symSize: 0x0 }
  - { offsetInCU: 0x41E, offset: 0x41E, size: 0x8, addend: 0x0, symName: _.str.37, symObjAddr: 0xBBA0, symBinAddr: 0x10003EC40, symSize: 0x0 }
  - { offsetInCU: 0x43B, offset: 0x43B, size: 0x8, addend: 0x0, symName: _.str.38, symObjAddr: 0xBC00, symBinAddr: 0x10003ECA0, symSize: 0x0 }
  - { offsetInCU: 0x458, offset: 0x458, size: 0x8, addend: 0x0, symName: _.str.39, symObjAddr: 0xBC60, symBinAddr: 0x10003ED00, symSize: 0x0 }
  - { offsetInCU: 0x469, offset: 0x469, size: 0x8, addend: 0x0, symName: _.str.40, symObjAddr: 0xBCC0, symBinAddr: 0x10003ED60, symSize: 0x0 }
  - { offsetInCU: 0x47A, offset: 0x47A, size: 0x8, addend: 0x0, symName: _.str.41, symObjAddr: 0xBD20, symBinAddr: 0x10003EDC0, symSize: 0x0 }
  - { offsetInCU: 0x48B, offset: 0x48B, size: 0x8, addend: 0x0, symName: _.str.42, symObjAddr: 0xBD60, symBinAddr: 0x10003EE00, symSize: 0x0 }
  - { offsetInCU: 0x49C, offset: 0x49C, size: 0x8, addend: 0x0, symName: _.str.43, symObjAddr: 0xBD80, symBinAddr: 0x10003EE20, symSize: 0x0 }
  - { offsetInCU: 0x4AE, offset: 0x4AE, size: 0x8, addend: 0x0, symName: _.str.44, symObjAddr: 0xBDE0, symBinAddr: 0x10003EE80, symSize: 0x0 }
  - { offsetInCU: 0x4CC, offset: 0x4CC, size: 0x8, addend: 0x0, symName: _.str.45, symObjAddr: 0xBE00, symBinAddr: 0x10003EEA0, symSize: 0x0 }
  - { offsetInCU: 0x4DE, offset: 0x4DE, size: 0x8, addend: 0x0, symName: _.str.46, symObjAddr: 0xBE20, symBinAddr: 0x10003EEC0, symSize: 0x0 }
  - { offsetInCU: 0x4F0, offset: 0x4F0, size: 0x8, addend: 0x0, symName: _.str.47, symObjAddr: 0xBE40, symBinAddr: 0x10003EEE0, symSize: 0x0 }
  - { offsetInCU: 0x502, offset: 0x502, size: 0x8, addend: 0x0, symName: _.str.48, symObjAddr: 0xBE60, symBinAddr: 0x10003EF00, symSize: 0x0 }
  - { offsetInCU: 0x520, offset: 0x520, size: 0x8, addend: 0x0, symName: _.str.49, symObjAddr: 0xBE80, symBinAddr: 0x10003EF20, symSize: 0x0 }
  - { offsetInCU: 0x532, offset: 0x532, size: 0x8, addend: 0x0, symName: _.str.50, symObjAddr: 0xBEA0, symBinAddr: 0x10003EF40, symSize: 0x0 }
  - { offsetInCU: 0x544, offset: 0x544, size: 0x8, addend: 0x0, symName: _.str.51, symObjAddr: 0xBEC0, symBinAddr: 0x10003EF60, symSize: 0x0 }
  - { offsetInCU: 0x556, offset: 0x556, size: 0x8, addend: 0x0, symName: _.str.52, symObjAddr: 0xBEE0, symBinAddr: 0x10003EF80, symSize: 0x0 }
  - { offsetInCU: 0x568, offset: 0x568, size: 0x8, addend: 0x0, symName: _.str.53, symObjAddr: 0xBF00, symBinAddr: 0x10003EFA0, symSize: 0x0 }
  - { offsetInCU: 0x586, offset: 0x586, size: 0x8, addend: 0x0, symName: _.str.54, symObjAddr: 0xBF40, symBinAddr: 0x10003EFE0, symSize: 0x0 }
  - { offsetInCU: 0x5A4, offset: 0x5A4, size: 0x8, addend: 0x0, symName: _.str.55, symObjAddr: 0xBF60, symBinAddr: 0x10003F000, symSize: 0x0 }
  - { offsetInCU: 0x5C2, offset: 0x5C2, size: 0x8, addend: 0x0, symName: _.str.56, symObjAddr: 0xBF80, symBinAddr: 0x10003F020, symSize: 0x0 }
  - { offsetInCU: 0x5D4, offset: 0x5D4, size: 0x8, addend: 0x0, symName: _.str.57, symObjAddr: 0xBFA0, symBinAddr: 0x10003F040, symSize: 0x0 }
  - { offsetInCU: 0x34FE, offset: 0x34FE, size: 0x8, addend: 0x0, symName: __ZNSt3__124__put_character_sequenceB7v160006IcNS_11char_traitsIcEEEERNS_13basic_ostreamIT_T0_EES7_PKS4_m, symObjAddr: 0x5C84, symBinAddr: 0x1000070A4, symSize: 0x74C }
  - { offsetInCU: 0x616A, offset: 0x616A, size: 0x8, addend: 0x0, symName: __ZNSt3__1lsB7v160006INS_11char_traitsIcEEEERNS_13basic_ostreamIcT_EES6_PKc, symObjAddr: 0x327C, symBinAddr: 0x10000469C, symSize: 0x48 }
  - { offsetInCU: 0x61B0, offset: 0x61B0, size: 0x8, addend: 0x0, symName: __ZNSt3__14endlB7v160006IcNS_11char_traitsIcEEEERNS_13basic_ostreamIT_T0_EES7_, symObjAddr: 0x32F0, symBinAddr: 0x100004710, symSize: 0xD4 }
  - { offsetInCU: 0x635B, offset: 0x635B, size: 0x8, addend: 0x0, symName: __ZNSt3__17getlineB7v160006IcNS_11char_traitsIcEENS_9allocatorIcEEEERNS_13basic_istreamIT_T0_EES9_RNS_12basic_stringIS6_S7_T1_EE, symObjAddr: 0x36E4, symBinAddr: 0x100004B04, symSize: 0xD8 }
  - { offsetInCU: 0x66F6, offset: 0x66F6, size: 0x8, addend: 0x0, symName: __ZNSt3__1rsB7v160006IcNS_11char_traitsIcEENS_9allocatorIcEEEERNS_13basic_istreamIT_T0_EES9_RNS_12basic_stringIS6_S7_T1_EE, symObjAddr: 0x3A74, symBinAddr: 0x100004E94, symSize: 0x994 }
  - { offsetInCU: 0x67CF, offset: 0x67CF, size: 0x8, addend: 0x0, symName: __ZNSt3__1lsB7v160006IcNS_11char_traitsIcEENS_9allocatorIcEEEERNS_13basic_ostreamIT_T0_EES9_RKNS_12basic_stringIS6_S7_T1_EE, symObjAddr: 0x4408, symBinAddr: 0x100005828, symSize: 0x4C }
  - { offsetInCU: 0x6827, offset: 0x6827, size: 0x8, addend: 0x0, symName: __ZNSt3__1eqB7v160006IcNS_11char_traitsIcEENS_9allocatorIcEEEEbRKNS_12basic_stringIT_T0_T1_EEPKS6_, symObjAddr: 0x44B8, symBinAddr: 0x1000058D8, symSize: 0xDC }
  - { offsetInCU: 0x9642, offset: 0x9642, size: 0x8, addend: 0x0, symName: __ZNSt3__134__libcpp_atomic_refcount_decrementB7v160006IlEET_RS1_, symObjAddr: 0x5354, symBinAddr: 0x100006774, symSize: 0x80 }
  - { offsetInCU: 0x9677, offset: 0x9677, size: 0x8, addend: 0x0, symName: __ZNSt3__119__debug_db_insert_cB7v160006INS_12basic_stringIcNS_11char_traitsIcEENS_9allocatorIcEEEEEEvPT_, symObjAddr: 0x5B94, symBinAddr: 0x100006FB4, symSize: 0x10 }
  - { offsetInCU: 0x96A8, offset: 0x96A8, size: 0x8, addend: 0x0, symName: __ZNSt3__118__constexpr_strlenB7v160006EPKc, symObjAddr: 0x5C60, symBinAddr: 0x100007080, symSize: 0x24 }
  - { offsetInCU: 0x96D4, offset: 0x96D4, size: 0x8, addend: 0x0, symName: __ZNSt3__116__pad_and_outputB7v160006IcNS_11char_traitsIcEEEENS_19ostreambuf_iteratorIT_T0_EES6_PKS4_S8_S8_RNS_8ios_baseES4_, symObjAddr: 0x6458, symBinAddr: 0x100007878, symSize: 0x774 }
  - { offsetInCU: 0x97B1, offset: 0x97B1, size: 0x8, addend: 0x0, symName: __ZNSt3__112__to_addressB7v160006IKcEEPT_S3_, symObjAddr: 0x7310, symBinAddr: 0x100008730, symSize: 0x14 }
  - { offsetInCU: 0x97E6, offset: 0x97E6, size: 0x8, addend: 0x0, symName: __ZNSt3__130__libcpp_is_constant_evaluatedB7v160006Ev, symObjAddr: 0x74EC, symBinAddr: 0x10000890C, symSize: 0xC }
  - { offsetInCU: 0x9836, offset: 0x9836, size: 0x8, addend: 0x0, symName: __ZNSt3__19use_facetB7v160006INS_5ctypeIcEEEERKT_RKNS_6localeE, symObjAddr: 0x79D4, symBinAddr: 0x100008DF4, symSize: 0x2C }
  - { offsetInCU: 0x9C16, offset: 0x9C16, size: 0x8, addend: 0x0, symName: __ZNSt3__117__libcpp_allocateB7v160006Emm, symObjAddr: 0x87FC, symBinAddr: 0x100009C1C, symSize: 0x28 }
  - { offsetInCU: 0x9C53, offset: 0x9C53, size: 0x8, addend: 0x0, symName: __ZNSt3__121__libcpp_operator_newB7v160006IJmEEEPvDpT_, symObjAddr: 0x8838, symBinAddr: 0x100009C58, symSize: 0x24 }
  - { offsetInCU: 0x9C8C, offset: 0x9C8C, size: 0x8, addend: 0x0, symName: __ZNSt3__17getlineB7v160006IcNS_11char_traitsIcEENS_9allocatorIcEEEERNS_13basic_istreamIT_T0_EES9_RNS_12basic_stringIS6_S7_T1_EES6_, symObjAddr: 0x8894, symBinAddr: 0x100009CB4, symSize: 0x688 }
  - { offsetInCU: 0x9D5D, offset: 0x9D5D, size: 0x8, addend: 0x0, symName: __ZNSt3__125__debug_db_invalidate_allB7v160006INS_12basic_stringIcNS_11char_traitsIcEENS_9allocatorIcEEEEEEvPT_, symObjAddr: 0x97B8, symBinAddr: 0x10000ABD8, symSize: 0x10 }
  - { offsetInCU: 0xA50D, offset: 0xA50D, size: 0x8, addend: 0x0, symName: __ZSt28__throw_bad_array_new_lengthB7v160006v, symObjAddr: 0x87C4, symBinAddr: 0x100009BE4, symSize: 0x38 }
  - { offsetInCU: 0xC9DE, offset: 0xC9DE, size: 0x8, addend: 0x0, symName: _main, symObjAddr: 0x0, symBinAddr: 0x100001420, symSize: 0x321C }
  - { offsetInCU: 0xCC67, offset: 0xCC67, size: 0x8, addend: 0x0, symName: __ZNSt3__112basic_stringIcNS_11char_traitsIcEENS_9allocatorIcEEEC1B7v160006IDnEEPKc, symObjAddr: 0x321C, symBinAddr: 0x10000463C, symSize: 0x34 }
  - { offsetInCU: 0xCEC8, offset: 0xCEC8, size: 0x8, addend: 0x0, symName: __ZNK4Disk6isOpenEv, symObjAddr: 0x3250, symBinAddr: 0x100004670, symSize: 0x2C }
  - { offsetInCU: 0xCEEE, offset: 0xCEEE, size: 0x8, addend: 0x0, symName: __ZNSt3__113basic_ostreamIcNS_11char_traitsIcEEElsB7v160006EPFRS3_S4_E, symObjAddr: 0x32C4, symBinAddr: 0x1000046E4, symSize: 0x2C }
  - { offsetInCU: 0xCF3B, offset: 0xCF3B, size: 0x8, addend: 0x0, symName: __ZNSt3__114basic_ifstreamIcNS_11char_traitsIcEEEC1EPKcj, symObjAddr: 0x33C4, symBinAddr: 0x1000047E4, symSize: 0x2C8 }
  - { offsetInCU: 0xCF85, offset: 0xCF85, size: 0x8, addend: 0x0, symName: __ZNKSt3__114basic_ifstreamIcNS_11char_traitsIcEEE7is_openEv, symObjAddr: 0x368C, symBinAddr: 0x100004AAC, symSize: 0x2C }
  - { offsetInCU: 0xCFAD, offset: 0xCFAD, size: 0x8, addend: 0x0, symName: __ZNSt3__112basic_stringIcNS_11char_traitsIcEENS_9allocatorIcEEEC1B7v160006Ev, symObjAddr: 0x36B8, symBinAddr: 0x100004AD8, symSize: 0x2C }
  - { offsetInCU: 0xCFD7, offset: 0xCFD7, size: 0x8, addend: 0x0, symName: __ZNKSt3__19basic_iosIcNS_11char_traitsIcEEEntB7v160006Ev, symObjAddr: 0x37BC, symBinAddr: 0x100004BDC, symSize: 0x28 }
  - { offsetInCU: 0xD162, offset: 0xD162, size: 0x8, addend: 0x0, symName: __ZN5BlockC1Ev, symObjAddr: 0x37E4, symBinAddr: 0x100004C04, symSize: 0x2C }
  - { offsetInCU: 0xD18C, offset: 0xD18C, size: 0x8, addend: 0x0, symName: __ZNKSt3__19basic_iosIcNS_11char_traitsIcEEEcvPvB7v160006Ev, symObjAddr: 0x3810, symBinAddr: 0x100004C30, symSize: 0x4C }
  - { offsetInCU: 0xD1B2, offset: 0xD1B2, size: 0x8, addend: 0x0, symName: __ZNKSt3__112basic_stringIcNS_11char_traitsIcEENS_9allocatorIcEEE5emptyB7v160006Ev, symObjAddr: 0x385C, symBinAddr: 0x100004C7C, symSize: 0x30 }
  - { offsetInCU: 0xD228, offset: 0xD228, size: 0x8, addend: 0x0, symName: __ZNSt3__119basic_istringstreamIcNS_11char_traitsIcEENS_9allocatorIcEEEC1B7v160006ERKNS_12basic_stringIcS2_S4_EEj, symObjAddr: 0x388C, symBinAddr: 0x100004CAC, symSize: 0x1E8 }
  - { offsetInCU: 0xD270, offset: 0xD270, size: 0x8, addend: 0x0, symName: __ZNKSt3__112basic_stringIcNS_11char_traitsIcEENS_9allocatorIcEEE5c_strB7v160006Ev, symObjAddr: 0x4454, symBinAddr: 0x100005874, symSize: 0x24 }
  - { offsetInCU: 0xD296, offset: 0xD296, size: 0x8, addend: 0x0, symName: __ZNSt12out_of_rangeC1B7v160006EPKc, symObjAddr: 0x4478, symBinAddr: 0x100005898, symSize: 0x34 }
  - { offsetInCU: 0xD2D3, offset: 0xD2D3, size: 0x8, addend: 0x0, symName: __ZNSt3__119basic_istringstreamIcNS_11char_traitsIcEENS_9allocatorIcEEED1Ev, symObjAddr: 0x4594, symBinAddr: 0x1000059B4, symSize: 0x7C }
  - { offsetInCU: 0xD300, offset: 0xD300, size: 0x8, addend: 0x0, symName: __ZNSt3__114basic_ifstreamIcNS_11char_traitsIcEEE5closeEv, symObjAddr: 0x4610, symBinAddr: 0x100005A30, symSize: 0xD4 }
  - { offsetInCU: 0xD341, offset: 0xD341, size: 0x8, addend: 0x0, symName: __ZNSt3__114basic_ofstreamIcNS_11char_traitsIcEEEC1EPKcj, symObjAddr: 0x46E4, symBinAddr: 0x100005B04, symSize: 0x2C8 }
  - { offsetInCU: 0xD38B, offset: 0xD38B, size: 0x8, addend: 0x0, symName: __ZNKSt3__114basic_ofstreamIcNS_11char_traitsIcEEE7is_openEv, symObjAddr: 0x49AC, symBinAddr: 0x100005DCC, symSize: 0x2C }
  - { offsetInCU: 0xD3B3, offset: 0xD3B3, size: 0x8, addend: 0x0, symName: __ZNSt3__114basic_ofstreamIcNS_11char_traitsIcEEE5closeEv, symObjAddr: 0x49D8, symBinAddr: 0x100005DF8, symSize: 0xD4 }
  - { offsetInCU: 0xD877, offset: 0xD877, size: 0x8, addend: 0x0, symName: __ZN6BPTreeD1Ev, symObjAddr: 0x4AAC, symBinAddr: 0x100005ECC, symSize: 0x2C }
  - { offsetInCU: 0xD8A8, offset: 0xD8A8, size: 0x8, addend: 0x0, symName: __ZNSt3__114basic_ofstreamIcNS_11char_traitsIcEEED1Ev, symObjAddr: 0x4AD8, symBinAddr: 0x100005EF8, symSize: 0x7C }
  - { offsetInCU: 0xD8DA, offset: 0xD8DA, size: 0x8, addend: 0x0, symName: __ZNSt3__114basic_ifstreamIcNS_11char_traitsIcEEED1Ev, symObjAddr: 0x4B54, symBinAddr: 0x100005F74, symSize: 0x7C }
  - { offsetInCU: 0xD907, offset: 0xD907, size: 0x8, addend: 0x0, symName: __ZNKSt3__113basic_fstreamIcNS_11char_traitsIcEEE7is_openEv, symObjAddr: 0x4BD0, symBinAddr: 0x100005FF0, symSize: 0x2C }
  - { offsetInCU: 0xD92F, offset: 0xD92F, size: 0x8, addend: 0x0, symName: __ZNKSt3__113basic_filebufIcNS_11char_traitsIcEEE7is_openEv, symObjAddr: 0x4BFC, symBinAddr: 0x10000601C, symSize: 0x70 }
  - { offsetInCU: 0xD957, offset: 0xD957, size: 0x8, addend: 0x0, symName: __ZN5BlockC2Ev, symObjAddr: 0x4C6C, symBinAddr: 0x10000608C, symSize: 0x8C }
  - { offsetInCU: 0xD981, offset: 0xD981, size: 0x8, addend: 0x0, symName: __ZNSt12out_of_rangeC2B7v160006EPKc, symObjAddr: 0x4CF8, symBinAddr: 0x100006118, symSize: 0x8C }
  - { offsetInCU: 0xD9B9, offset: 0xD9B9, size: 0x8, addend: 0x0, symName: __ZNSt3__119basic_istringstreamIcNS_11char_traitsIcEENS_9allocatorIcEEED2Ev, symObjAddr: 0x4D84, symBinAddr: 0x1000061A4, symSize: 0x1DC }
  - { offsetInCU: 0xD9F3, offset: 0xD9F3, size: 0x8, addend: 0x0, symName: __ZTv0_n24_NSt3__119basic_istringstreamIcNS_11char_traitsIcEENS_9allocatorIcEEED1Ev, symObjAddr: 0x4F60, symBinAddr: 0x100006380, symSize: 0xB0 }
  - { offsetInCU: 0xDA0F, offset: 0xDA0F, size: 0x8, addend: 0x0, symName: __ZNSt3__115basic_stringbufIcNS_11char_traitsIcEENS_9allocatorIcEEED1Ev, symObjAddr: 0x5010, symBinAddr: 0x100006430, symSize: 0x2C }
  - { offsetInCU: 0xDA3C, offset: 0xDA3C, size: 0x8, addend: 0x0, symName: __ZNSt3__115basic_stringbufIcNS_11char_traitsIcEENS_9allocatorIcEEED2Ev, symObjAddr: 0x503C, symBinAddr: 0x10000645C, symSize: 0xC4 }
  - { offsetInCU: 0xDA69, offset: 0xDA69, size: 0x8, addend: 0x0, symName: __ZN6BPTreeD2Ev, symObjAddr: 0x5100, symBinAddr: 0x100006520, symSize: 0x2C }
  - { offsetInCU: 0xDA95, offset: 0xDA95, size: 0x8, addend: 0x0, symName: __ZNSt3__110shared_ptrI10BPTreeNodeED1B7v160006Ev, symObjAddr: 0x512C, symBinAddr: 0x10000654C, symSize: 0x2C }
  - { offsetInCU: 0xDABF, offset: 0xDABF, size: 0x8, addend: 0x0, symName: __ZNSt3__110shared_ptrI10BPTreeNodeED2B7v160006Ev, symObjAddr: 0x5158, symBinAddr: 0x100006578, symSize: 0xC8 }
  - { offsetInCU: 0xDAE9, offset: 0xDAE9, size: 0x8, addend: 0x0, symName: __ZNSt3__119__shared_weak_count16__release_sharedB7v160006Ev, symObjAddr: 0x5220, symBinAddr: 0x100006640, symSize: 0x3C }
  - { offsetInCU: 0xDB0F, offset: 0xDB0F, size: 0x8, addend: 0x0, symName: __ZNSt3__114__shared_count16__release_sharedB7v160006Ev, symObjAddr: 0x525C, symBinAddr: 0x10000667C, symSize: 0xF8 }
  - { offsetInCU: 0xDB35, offset: 0xDB35, size: 0x8, addend: 0x0, symName: __ZNSt3__114basic_ofstreamIcNS_11char_traitsIcEEED2Ev, symObjAddr: 0x53D4, symBinAddr: 0x1000067F4, symSize: 0x1DC }
  - { offsetInCU: 0xDB6F, offset: 0xDB6F, size: 0x8, addend: 0x0, symName: __ZTv0_n24_NSt3__114basic_ofstreamIcNS_11char_traitsIcEEED1Ev, symObjAddr: 0x55B0, symBinAddr: 0x1000069D0, symSize: 0xB0 }
  - { offsetInCU: 0xDB86, offset: 0xDB86, size: 0x8, addend: 0x0, symName: __ZNSt3__114basic_ifstreamIcNS_11char_traitsIcEEED2Ev, symObjAddr: 0x5660, symBinAddr: 0x100006A80, symSize: 0x1DC }
  - { offsetInCU: 0xDBC0, offset: 0xDBC0, size: 0x8, addend: 0x0, symName: __ZTv0_n24_NSt3__114basic_ifstreamIcNS_11char_traitsIcEEED1Ev, symObjAddr: 0x583C, symBinAddr: 0x100006C5C, symSize: 0xB0 }
  - { offsetInCU: 0xDBD7, offset: 0xDBD7, size: 0x8, addend: 0x0, symName: __ZNSt3__112basic_stringIcNS_11char_traitsIcEENS_9allocatorIcEEEC2B7v160006IDnEEPKc, symObjAddr: 0x58EC, symBinAddr: 0x100006D0C, symSize: 0x218 }
  - { offsetInCU: 0xDC1C, offset: 0xDC1C, size: 0x8, addend: 0x0, symName: __ZNSt3__117__compressed_pairINS_12basic_stringIcNS_11char_traitsIcEENS_9allocatorIcEEE5__repES5_EC1B7v160006INS_18__default_init_tagESA_EEOT_OT0_, symObjAddr: 0x5B04, symBinAddr: 0x100006F24, symSize: 0x3C }
  - { offsetInCU: 0xDC74, offset: 0xDC74, size: 0x8, addend: 0x0, symName: __ZNSt3__111char_traitsIcE6lengthEPKc, symObjAddr: 0x5B40, symBinAddr: 0x100006F60, symSize: 0x54 }
  - { offsetInCU: 0xDC97, offset: 0xDC97, size: 0x8, addend: 0x0, symName: __ZNSt3__117__compressed_pairINS_12basic_stringIcNS_11char_traitsIcEENS_9allocatorIcEEE5__repES5_EC2B7v160006INS_18__default_init_tagESA_EEOT_OT0_, symObjAddr: 0x5BA4, symBinAddr: 0x100006FC4, symSize: 0x3C }
  - { offsetInCU: 0xDCEF, offset: 0xDCEF, size: 0x8, addend: 0x0, symName: __ZNSt3__122__compressed_pair_elemINS_12basic_stringIcNS_11char_traitsIcEENS_9allocatorIcEEE5__repELi0ELb0EEC2B7v160006ENS_18__default_init_tagE, symObjAddr: 0x5BE0, symBinAddr: 0x100007000, symSize: 0x14 }
  - { offsetInCU: 0xDD24, offset: 0xDD24, size: 0x8, addend: 0x0, symName: __ZNSt3__122__compressed_pair_elemINS_9allocatorIcEELi1ELb1EEC2B7v160006ENS_18__default_init_tagE, symObjAddr: 0x5BF4, symBinAddr: 0x100007014, symSize: 0x2C }
  - { offsetInCU: 0xDD59, offset: 0xDD59, size: 0x8, addend: 0x0, symName: __ZNSt3__19allocatorIcEC2B7v160006Ev, symObjAddr: 0x5C20, symBinAddr: 0x100007040, symSize: 0x2C }
  - { offsetInCU: 0xDD83, offset: 0xDD83, size: 0x8, addend: 0x0, symName: __ZNSt3__116__non_trivial_ifILb1ENS_9allocatorIcEEEC2B7v160006Ev, symObjAddr: 0x5C4C, symBinAddr: 0x10000706C, symSize: 0x14 }
  - { offsetInCU: 0xDDCB, offset: 0xDDCB, size: 0x8, addend: 0x0, symName: __ZNKSt3__113basic_ostreamIcNS_11char_traitsIcEEE6sentrycvbB7v160006Ev, symObjAddr: 0x63D0, symBinAddr: 0x1000077F0, symSize: 0x88 }
  - { offsetInCU: 0xDDF1, offset: 0xDDF1, size: 0x8, addend: 0x0, symName: __ZNSt3__119ostreambuf_iteratorIcNS_11char_traitsIcEEEC1B7v160006ERNS_13basic_ostreamIcS2_EE, symObjAddr: 0x6BCC, symBinAddr: 0x100007FEC, symSize: 0x34 }
  - { offsetInCU: 0xDE29, offset: 0xDE29, size: 0x8, addend: 0x0, symName: __ZNKSt3__18ios_base5flagsB7v160006Ev, symObjAddr: 0x6C00, symBinAddr: 0x100008020, symSize: 0x8C }
  - { offsetInCU: 0xDE51, offset: 0xDE51, size: 0x8, addend: 0x0, symName: __ZNKSt3__19basic_iosIcNS_11char_traitsIcEEE4fillB7v160006Ev, symObjAddr: 0x6C8C, symBinAddr: 0x1000080AC, symSize: 0x198 }
  - { offsetInCU: 0xDE79, offset: 0xDE79, size: 0x8, addend: 0x0, symName: __ZNKSt3__119ostreambuf_iteratorIcNS_11char_traitsIcEEE6failedB7v160006Ev, symObjAddr: 0x6E24, symBinAddr: 0x100008244, symSize: 0x6C }
  - { offsetInCU: 0xDE9F, offset: 0xDE9F, size: 0x8, addend: 0x0, symName: __ZNSt3__19basic_iosIcNS_11char_traitsIcEEE8setstateB7v160006Ej, symObjAddr: 0x6E90, symBinAddr: 0x1000082B0, symSize: 0x2C }
  - { offsetInCU: 0xDED4, offset: 0xDED4, size: 0x8, addend: 0x0, symName: __ZNKSt3__18ios_base5widthB7v160006Ev, symObjAddr: 0x6EBC, symBinAddr: 0x1000082DC, symSize: 0x64 }
  - { offsetInCU: 0xDEFC, offset: 0xDEFC, size: 0x8, addend: 0x0, symName: __ZNSt3__115basic_streambufIcNS_11char_traitsIcEEE5sputnB7v160006EPKcl, symObjAddr: 0x6F20, symBinAddr: 0x100008340, symSize: 0xC8 }
  - { offsetInCU: 0xDF3E, offset: 0xDF3E, size: 0x8, addend: 0x0, symName: __ZNSt3__112basic_stringIcNS_11char_traitsIcEENS_9allocatorIcEEEC1B7v160006Emc, symObjAddr: 0x6FE8, symBinAddr: 0x100008408, symSize: 0x3C }
  - { offsetInCU: 0xDF86, offset: 0xDF86, size: 0x8, addend: 0x0, symName: __ZNKSt3__112basic_stringIcNS_11char_traitsIcEENS_9allocatorIcEEE4dataB7v160006Ev, symObjAddr: 0x7024, symBinAddr: 0x100008444, symSize: 0x28 }
  - { offsetInCU: 0xDFAC, offset: 0xDFAC, size: 0x8, addend: 0x0, symName: __ZNSt3__18ios_base5widthB7v160006El, symObjAddr: 0x704C, symBinAddr: 0x10000846C, symSize: 0xB8 }
  - { offsetInCU: 0xDFF2, offset: 0xDFF2, size: 0x8, addend: 0x0, symName: __ZNSt3__112basic_stringIcNS_11char_traitsIcEENS_9allocatorIcEEEC2B7v160006Emc, symObjAddr: 0x7104, symBinAddr: 0x100008524, symSize: 0x20C }
  - { offsetInCU: 0xE03D, offset: 0xE03D, size: 0x8, addend: 0x0, symName: __ZNKSt3__112basic_stringIcNS_11char_traitsIcEENS_9allocatorIcEEE13__get_pointerB7v160006Ev, symObjAddr: 0x7324, symBinAddr: 0x100008744, symSize: 0x54 }
  - { offsetInCU: 0xE063, offset: 0xE063, size: 0x8, addend: 0x0, symName: __ZNKSt3__112basic_stringIcNS_11char_traitsIcEENS_9allocatorIcEEE9__is_longB7v160006Ev, symObjAddr: 0x7378, symBinAddr: 0x100008798, symSize: 0xE0 }
  - { offsetInCU: 0xE089, offset: 0xE089, size: 0x8, addend: 0x0, symName: __ZNKSt3__112basic_stringIcNS_11char_traitsIcEENS_9allocatorIcEEE18__get_long_pointerB7v160006Ev, symObjAddr: 0x7458, symBinAddr: 0x100008878, symSize: 0x6C }
  - { offsetInCU: 0xE0AF, offset: 0xE0AF, size: 0x8, addend: 0x0, symName: __ZNKSt3__112basic_stringIcNS_11char_traitsIcEENS_9allocatorIcEEE19__get_short_pointerB7v160006Ev, symObjAddr: 0x74C4, symBinAddr: 0x1000088E4, symSize: 0x28 }
  - { offsetInCU: 0xE0D5, offset: 0xE0D5, size: 0x8, addend: 0x0, symName: __ZNKSt3__117__compressed_pairINS_12basic_stringIcNS_11char_traitsIcEENS_9allocatorIcEEE5__repES5_E5firstB7v160006Ev, symObjAddr: 0x74F8, symBinAddr: 0x100008918, symSize: 0x24 }
  - { offsetInCU: 0xE0FB, offset: 0xE0FB, size: 0x8, addend: 0x0, symName: __ZNKSt3__122__compressed_pair_elemINS_12basic_stringIcNS_11char_traitsIcEENS_9allocatorIcEEE5__repELi0ELb0EE5__getB7v160006Ev, symObjAddr: 0x751C, symBinAddr: 0x10000893C, symSize: 0x14 }
  - { offsetInCU: 0xE121, offset: 0xE121, size: 0x8, addend: 0x0, symName: __ZNSt3__114pointer_traitsIPKcE10pointer_toB7v160006ERS1_, symObjAddr: 0x7530, symBinAddr: 0x100008950, symSize: 0x14 }
  - { offsetInCU: 0xE144, offset: 0xE144, size: 0x8, addend: 0x0, symName: __ZNSt3__119ostreambuf_iteratorIcNS_11char_traitsIcEEEC2B7v160006ERNS_13basic_ostreamIcS2_EE, symObjAddr: 0x7544, symBinAddr: 0x100008964, symSize: 0x120 }
  - { offsetInCU: 0xE17C, offset: 0xE17C, size: 0x8, addend: 0x0, symName: __ZNKSt3__19basic_iosIcNS_11char_traitsIcEEE5rdbufB7v160006Ev, symObjAddr: 0x7664, symBinAddr: 0x100008A84, symSize: 0x24 }
  - { offsetInCU: 0xE1A4, offset: 0xE1A4, size: 0x8, addend: 0x0, symName: __ZNKSt3__18ios_base5rdbufB7v160006Ev, symObjAddr: 0x7688, symBinAddr: 0x100008AA8, symSize: 0x64 }
  - { offsetInCU: 0xE1CA, offset: 0xE1CA, size: 0x8, addend: 0x0, symName: __ZNSt3__111char_traitsIcE11eq_int_typeEii, symObjAddr: 0x76EC, symBinAddr: 0x100008B0C, symSize: 0x28 }
  - { offsetInCU: 0xE1FB, offset: 0xE1FB, size: 0x8, addend: 0x0, symName: __ZNSt3__111char_traitsIcE3eofEv, symObjAddr: 0x7714, symBinAddr: 0x100008B34, symSize: 0x8 }
  - { offsetInCU: 0xE20F, offset: 0xE20F, size: 0x8, addend: 0x0, symName: __ZNKSt3__19basic_iosIcNS_11char_traitsIcEEE5widenB7v160006Ec, symObjAddr: 0x771C, symBinAddr: 0x100008B3C, symSize: 0x2B8 }
  - { offsetInCU: 0xE270, offset: 0xE270, size: 0x8, addend: 0x0, symName: __ZNKSt3__15ctypeIcE5widenB7v160006Ec, symObjAddr: 0x7A00, symBinAddr: 0x100008E20, symSize: 0xBC }
  - { offsetInCU: 0xE2A5, offset: 0xE2A5, size: 0x8, addend: 0x0, symName: __ZNSt3__18ios_base8setstateB7v160006Ej, symObjAddr: 0x7ABC, symBinAddr: 0x100008EDC, symSize: 0x9C }
  - { offsetInCU: 0xE2DC, offset: 0xE2DC, size: 0x8, addend: 0x0, symName: __ZNSt3__19basic_iosIcNS_11char_traitsIcEEEC2B7v160006Ev, symObjAddr: 0x7B58, symBinAddr: 0x100008F78, symSize: 0x84 }
  - { offsetInCU: 0xE306, offset: 0xE306, size: 0x8, addend: 0x0, symName: __ZNSt3__113basic_istreamIcNS_11char_traitsIcEEEC2B7v160006EPNS_15basic_streambufIcS2_EE, symObjAddr: 0x7BDC, symBinAddr: 0x100008FFC, symSize: 0x20C }
  - { offsetInCU: 0xE34B, offset: 0xE34B, size: 0x8, addend: 0x0, symName: __ZNSt3__18ios_baseC2B7v160006Ev, symObjAddr: 0x7DE8, symBinAddr: 0x100009208, symSize: 0x74 }
  - { offsetInCU: 0xE375, offset: 0xE375, size: 0x8, addend: 0x0, symName: __ZNSt3__19basic_iosIcNS_11char_traitsIcEEE4initB7v160006EPNS_15basic_streambufIcS2_EE, symObjAddr: 0x7E5C, symBinAddr: 0x10000927C, symSize: 0xEC }
  - { offsetInCU: 0xE3AC, offset: 0xE3AC, size: 0x8, addend: 0x0, symName: __ZNSt3__112basic_stringIcNS_11char_traitsIcEENS_9allocatorIcEEEC2B7v160006Ev, symObjAddr: 0x7F48, symBinAddr: 0x100009368, symSize: 0x1FC }
  - { offsetInCU: 0xE3D7, offset: 0xE3D7, size: 0x8, addend: 0x0, symName: __ZNSt3__112basic_stringIcNS_11char_traitsIcEENS_9allocatorIcEEE14__default_initB7v160006Ev, symObjAddr: 0x8144, symBinAddr: 0x100009564, symSize: 0x298 }
  - { offsetInCU: 0xE42C, offset: 0xE42C, size: 0x8, addend: 0x0, symName: __ZNSt3__117__compressed_pairINS_12basic_stringIcNS_11char_traitsIcEENS_9allocatorIcEEE5__repES5_E5firstB7v160006Ev, symObjAddr: 0x83DC, symBinAddr: 0x1000097FC, symSize: 0x24 }
  - { offsetInCU: 0xE452, offset: 0xE452, size: 0x8, addend: 0x0, symName: __ZNSt3__112basic_stringIcNS_11char_traitsIcEENS_9allocatorIcEEE11__recommendB7v160006Em, symObjAddr: 0x8400, symBinAddr: 0x100009820, symSize: 0x9C }
  - { offsetInCU: 0xE485, offset: 0xE485, size: 0x8, addend: 0x0, symName: __ZNSt3__116allocator_traitsINS_9allocatorIcEEE8allocateB7v160006ERS2_m, symObjAddr: 0x849C, symBinAddr: 0x1000098BC, symSize: 0x2C }
  - { offsetInCU: 0xE4B8, offset: 0xE4B8, size: 0x8, addend: 0x0, symName: __ZNSt3__112basic_stringIcNS_11char_traitsIcEENS_9allocatorIcEEE7__allocB7v160006Ev, symObjAddr: 0x84C8, symBinAddr: 0x1000098E8, symSize: 0x24 }
  - { offsetInCU: 0xE4DE, offset: 0xE4DE, size: 0x8, addend: 0x0, symName: __ZNSt3__112basic_stringIcNS_11char_traitsIcEENS_9allocatorIcEEE16__begin_lifetimeB7v160006EPcm, symObjAddr: 0x84EC, symBinAddr: 0x10000990C, symSize: 0x14 }
  - { offsetInCU: 0xE511, offset: 0xE511, size: 0x8, addend: 0x0, symName: __ZNSt3__112basic_stringIcNS_11char_traitsIcEENS_9allocatorIcEEE18__set_long_pointerB7v160006EPc, symObjAddr: 0x8500, symBinAddr: 0x100009920, symSize: 0x7C }
  - { offsetInCU: 0xE546, offset: 0xE546, size: 0x8, addend: 0x0, symName: __ZNSt3__112basic_stringIcNS_11char_traitsIcEENS_9allocatorIcEEE14__set_long_capB7v160006Em, symObjAddr: 0x857C, symBinAddr: 0x10000999C, symSize: 0xEC }
  - { offsetInCU: 0xE57B, offset: 0xE57B, size: 0x8, addend: 0x0, symName: __ZNSt3__112basic_stringIcNS_11char_traitsIcEENS_9allocatorIcEEE15__set_long_sizeB7v160006Em, symObjAddr: 0x8668, symBinAddr: 0x100009A88, symSize: 0x80 }
  - { offsetInCU: 0xE5B0, offset: 0xE5B0, size: 0x8, addend: 0x0, symName: __ZNSt3__122__compressed_pair_elemINS_12basic_stringIcNS_11char_traitsIcEENS_9allocatorIcEEE5__repELi0ELb0EE5__getB7v160006Ev, symObjAddr: 0x86E8, symBinAddr: 0x100009B08, symSize: 0x14 }
  - { offsetInCU: 0xE5D6, offset: 0xE5D6, size: 0x8, addend: 0x0, symName: __ZNSt3__112basic_stringIcNS_11char_traitsIcEENS_9allocatorIcEEE10__align_itB7v160006ILm16EEEmm, symObjAddr: 0x86FC, symBinAddr: 0x100009B1C, symSize: 0x1C }
  - { offsetInCU: 0xE604, offset: 0xE604, size: 0x8, addend: 0x0, symName: __ZNSt3__19allocatorIcE8allocateB7v160006Em, symObjAddr: 0x8718, symBinAddr: 0x100009B38, symSize: 0x88 }
  - { offsetInCU: 0xE642, offset: 0xE642, size: 0x8, addend: 0x0, symName: __ZNSt3__116allocator_traitsINS_9allocatorIcEEE8max_sizeB7v160006IS2_vEEmRKS2_, symObjAddr: 0x87A0, symBinAddr: 0x100009BC0, symSize: 0x24 }
  - { offsetInCU: 0xE670, offset: 0xE670, size: 0x8, addend: 0x0, symName: __ZNKSt3__19allocatorIcE8max_sizeB7v160006Ev, symObjAddr: 0x8824, symBinAddr: 0x100009C44, symSize: 0x14 }
  - { offsetInCU: 0xE696, offset: 0xE696, size: 0x8, addend: 0x0, symName: __ZNSt3__117__compressed_pairINS_12basic_stringIcNS_11char_traitsIcEENS_9allocatorIcEEE5__repES5_E6secondB7v160006Ev, symObjAddr: 0x885C, symBinAddr: 0x100009C7C, symSize: 0x24 }
  - { offsetInCU: 0xE6BC, offset: 0xE6BC, size: 0x8, addend: 0x0, symName: __ZNSt3__122__compressed_pair_elemINS_9allocatorIcEELi1ELb1EE5__getB7v160006Ev, symObjAddr: 0x8880, symBinAddr: 0x100009CA0, symSize: 0x14 }
  - { offsetInCU: 0xE700, offset: 0xE700, size: 0x8, addend: 0x0, symName: __ZNKSt3__113basic_istreamIcNS_11char_traitsIcEEE6sentrycvbB7v160006Ev, symObjAddr: 0x8F1C, symBinAddr: 0x10000A33C, symSize: 0x88 }
  - { offsetInCU: 0xE726, offset: 0xE726, size: 0x8, addend: 0x0, symName: __ZNSt3__112basic_stringIcNS_11char_traitsIcEENS_9allocatorIcEEE5clearB7v160006Ev, symObjAddr: 0x8FA4, symBinAddr: 0x10000A3C4, symSize: 0x33C }
  - { offsetInCU: 0xE74F, offset: 0xE74F, size: 0x8, addend: 0x0, symName: __ZNSt3__115basic_streambufIcNS_11char_traitsIcEEE6sbumpcB7v160006Ev, symObjAddr: 0x92E0, symBinAddr: 0x10000A700, symSize: 0x1EC }
  - { offsetInCU: 0xE775, offset: 0xE775, size: 0x8, addend: 0x0, symName: __ZNSt3__111char_traitsIcE12to_char_typeEi, symObjAddr: 0x94CC, symBinAddr: 0x10000A8EC, symSize: 0x18 }
  - { offsetInCU: 0xE798, offset: 0xE798, size: 0x8, addend: 0x0, symName: __ZNSt3__111char_traitsIcE2eqEcc, symObjAddr: 0x94E4, symBinAddr: 0x10000A904, symSize: 0x28 }
  - { offsetInCU: 0xE7C9, offset: 0xE7C9, size: 0x8, addend: 0x0, symName: __ZNKSt3__112basic_stringIcNS_11char_traitsIcEENS_9allocatorIcEEE4sizeB7v160006Ev, symObjAddr: 0x950C, symBinAddr: 0x10000A92C, symSize: 0x54 }
  - { offsetInCU: 0xE7EF, offset: 0xE7EF, size: 0x8, addend: 0x0, symName: __ZNKSt3__112basic_stringIcNS_11char_traitsIcEENS_9allocatorIcEEE8max_sizeB7v160006Ev, symObjAddr: 0x9560, symBinAddr: 0x10000A980, symSize: 0xBC }
  - { offsetInCU: 0xE841, offset: 0xE841, size: 0x8, addend: 0x0, symName: __ZNSt3__18ios_base18__setstate_nothrowB7v160006Ej, symObjAddr: 0x961C, symBinAddr: 0x10000AA3C, symSize: 0x178 }
  - { offsetInCU: 0xE876, offset: 0xE876, size: 0x8, addend: 0x0, symName: __ZNKSt3__19basic_iosIcNS_11char_traitsIcEEE10exceptionsB7v160006Ev, symObjAddr: 0x9794, symBinAddr: 0x10000ABB4, symSize: 0x24 }
  - { offsetInCU: 0xE89C, offset: 0xE89C, size: 0x8, addend: 0x0, symName: __ZNSt3__111char_traitsIcE6assignERcRKc, symObjAddr: 0x97C8, symBinAddr: 0x10000ABE8, symSize: 0xF4 }
  - { offsetInCU: 0xE8CD, offset: 0xE8CD, size: 0x8, addend: 0x0, symName: __ZNSt3__112basic_stringIcNS_11char_traitsIcEENS_9allocatorIcEEE18__get_long_pointerB7v160006Ev, symObjAddr: 0x98BC, symBinAddr: 0x10000ACDC, symSize: 0x6C }
  - { offsetInCU: 0xE8F3, offset: 0xE8F3, size: 0x8, addend: 0x0, symName: __ZNSt3__112basic_stringIcNS_11char_traitsIcEENS_9allocatorIcEEE19__get_short_pointerB7v160006Ev, symObjAddr: 0x9928, symBinAddr: 0x10000AD48, symSize: 0x28 }
  - { offsetInCU: 0xE919, offset: 0xE919, size: 0x8, addend: 0x0, symName: __ZNSt3__112basic_stringIcNS_11char_traitsIcEENS_9allocatorIcEEE16__set_short_sizeB7v160006Em, symObjAddr: 0x9950, symBinAddr: 0x10000AD70, symSize: 0x130 }
  - { offsetInCU: 0xE94E, offset: 0xE94E, size: 0x8, addend: 0x0, symName: __ZNSt3__114pointer_traitsIPcE10pointer_toB7v160006ERc, symObjAddr: 0x9A80, symBinAddr: 0x10000AEA0, symSize: 0x14 }
  - { offsetInCU: 0xE971, offset: 0xE971, size: 0x8, addend: 0x0, symName: __ZNSt3__111char_traitsIcE11to_int_typeEc, symObjAddr: 0x9A94, symBinAddr: 0x10000AEB4, symSize: 0x14 }
  - { offsetInCU: 0xE994, offset: 0xE994, size: 0x8, addend: 0x0, symName: __ZNKSt3__112basic_stringIcNS_11char_traitsIcEENS_9allocatorIcEEE15__get_long_sizeB7v160006Ev, symObjAddr: 0x9AA8, symBinAddr: 0x10000AEC8, symSize: 0x70 }
  - { offsetInCU: 0xE9BA, offset: 0xE9BA, size: 0x8, addend: 0x0, symName: __ZNKSt3__112basic_stringIcNS_11char_traitsIcEENS_9allocatorIcEEE16__get_short_sizeB7v160006Ev, symObjAddr: 0x9B18, symBinAddr: 0x10000AF38, symSize: 0xA0 }
  - { offsetInCU: 0xE9E0, offset: 0xE9E0, size: 0x8, addend: 0x0, symName: __ZNKSt3__112basic_stringIcNS_11char_traitsIcEENS_9allocatorIcEEE7__allocB7v160006Ev, symObjAddr: 0x9BB8, symBinAddr: 0x10000AFD8, symSize: 0x24 }
  - { offsetInCU: 0xEA06, offset: 0xEA06, size: 0x8, addend: 0x0, symName: __ZNSt3__114numeric_limitsImE3maxB7v160006Ev, symObjAddr: 0x9BDC, symBinAddr: 0x10000AFFC, symSize: 0x14 }
  - { offsetInCU: 0xEA1A, offset: 0xEA1A, size: 0x8, addend: 0x0, symName: __ZNKSt3__117__compressed_pairINS_12basic_stringIcNS_11char_traitsIcEENS_9allocatorIcEEE5__repES5_E6secondB7v160006Ev, symObjAddr: 0x9BF0, symBinAddr: 0x10000B010, symSize: 0x24 }
  - { offsetInCU: 0xEA40, offset: 0xEA40, size: 0x8, addend: 0x0, symName: __ZNKSt3__122__compressed_pair_elemINS_9allocatorIcEELi1ELb1EE5__getB7v160006Ev, symObjAddr: 0x9C14, symBinAddr: 0x10000B034, symSize: 0x14 }
  - { offsetInCU: 0xEA66, offset: 0xEA66, size: 0x8, addend: 0x0, symName: __ZNSt3__123__libcpp_numeric_limitsImLb1EE3maxB7v160006Ev, symObjAddr: 0x9C28, symBinAddr: 0x10000B048, symSize: 0x8 }
  - { offsetInCU: 0xEA7A, offset: 0xEA7A, size: 0x8, addend: 0x0, symName: __ZNKSt3__18ios_base10exceptionsB7v160006Ev, symObjAddr: 0x9C30, symBinAddr: 0x10000B050, symSize: 0x8C }
  - { offsetInCU: 0xEAA2, offset: 0xEAA2, size: 0x8, addend: 0x0, symName: __ZNKSt3__19basic_iosIcNS_11char_traitsIcEEE4failB7v160006Ev, symObjAddr: 0x9CBC, symBinAddr: 0x10000B0DC, symSize: 0x28 }
  - { offsetInCU: 0xEAC8, offset: 0xEAC8, size: 0x8, addend: 0x0, symName: __ZNKSt3__18ios_base4failB7v160006Ev, symObjAddr: 0x9CE4, symBinAddr: 0x10000B104, symSize: 0x9C }
  - { offsetInCU: 0xEAF0, offset: 0xEAF0, size: 0x8, addend: 0x0, symName: __ZNSt3__115basic_stringbufIcNS_11char_traitsIcEENS_9allocatorIcEEEC1B7v160006ERKNS_12basic_stringIcS2_S4_EEj, symObjAddr: 0x9D80, symBinAddr: 0x10000B1A0, symSize: 0x3C }
  - { offsetInCU: 0xEB36, offset: 0xEB36, size: 0x8, addend: 0x0, symName: __ZNSt3__115basic_stringbufIcNS_11char_traitsIcEENS_9allocatorIcEEEC2B7v160006ERKNS_12basic_stringIcS2_S4_EEj, symObjAddr: 0x9DBC, symBinAddr: 0x10000B1DC, symSize: 0x3D8 }
  - { offsetInCU: 0xEB7F, offset: 0xEB7F, size: 0x8, addend: 0x0, symName: __ZNKSt3__112basic_stringIcNS_11char_traitsIcEENS_9allocatorIcEEE13get_allocatorB7v160006Ev, symObjAddr: 0xA194, symBinAddr: 0x10000B5B4, symSize: 0x24 }
  - { offsetInCU: 0xEBA5, offset: 0xEBA5, size: 0x8, addend: 0x0, symName: __ZNSt3__112basic_stringIcNS_11char_traitsIcEENS_9allocatorIcEEEC1B7v160006ERKS4_, symObjAddr: 0xA1B8, symBinAddr: 0x10000B5D8, symSize: 0x34 }
  - { offsetInCU: 0xEBDE, offset: 0xEBDE, size: 0x8, addend: 0x0, symName: __ZNSt3__112basic_stringIcNS_11char_traitsIcEENS_9allocatorIcEEEC2B7v160006ERKS4_, symObjAddr: 0xA1EC, symBinAddr: 0x10000B60C, symSize: 0x1F0 }
  - { offsetInCU: 0xEC19, offset: 0xEC19, size: 0x8, addend: 0x0, symName: __ZNSt3__117__compressed_pairINS_12basic_stringIcNS_11char_traitsIcEENS_9allocatorIcEEE5__repES5_EC1B7v160006INS_18__default_init_tagERKS5_EEOT_OT0_, symObjAddr: 0xA3DC, symBinAddr: 0x10000B7FC, symSize: 0x3C }
  - { offsetInCU: 0xEC71, offset: 0xEC71, size: 0x8, addend: 0x0, symName: __ZNSt3__117__compressed_pairINS_12basic_stringIcNS_11char_traitsIcEENS_9allocatorIcEEE5__repES5_EC2B7v160006INS_18__default_init_tagERKS5_EEOT_OT0_, symObjAddr: 0xA418, symBinAddr: 0x10000B838, symSize: 0x40 }
  - { offsetInCU: 0xECC9, offset: 0xECC9, size: 0x8, addend: 0x0, symName: __ZNSt3__122__compressed_pair_elemINS_9allocatorIcEELi1ELb1EEC2B7v160006IRKS2_vEEOT_, symObjAddr: 0xA458, symBinAddr: 0x10000B878, symSize: 0x18 }
  - { offsetInCU: 0xED0B, offset: 0xED0B, size: 0x8, addend: 0x0, symName: __ZNSt3__114numeric_limitsIlE3maxB7v160006Ev, symObjAddr: 0xA470, symBinAddr: 0x10000B890, symSize: 0x14 }
  - { offsetInCU: 0xED1F, offset: 0xED1F, size: 0x8, addend: 0x0, symName: __ZNSt3__115basic_streambufIcNS_11char_traitsIcEEE5sgetcB7v160006Ev, symObjAddr: 0xA484, symBinAddr: 0x10000B8A4, symSize: 0x1E4 }
  - { offsetInCU: 0xED45, offset: 0xED45, size: 0x8, addend: 0x0, symName: __ZNKSt3__15ctypeIcE2isB7v160006Ejc, symObjAddr: 0xA668, symBinAddr: 0x10000BA88, symSize: 0x120 }
  - { offsetInCU: 0xED89, offset: 0xED89, size: 0x8, addend: 0x0, symName: __ZNSt3__123__libcpp_numeric_limitsIlLb1EE3maxB7v160006Ev, symObjAddr: 0xA788, symBinAddr: 0x10000BBA8, symSize: 0x8 }
  - { offsetInCU: 0xED9C, offset: 0xED9C, size: 0x8, addend: 0x0, symName: __Z7isasciii, symObjAddr: 0xA790, symBinAddr: 0x10000BBB0, symSize: 0x24 }
  - { offsetInCU: 0xEDC9, offset: 0xEDC9, size: 0x8, addend: 0x0, symName: __ZNSt3__113basic_ostreamIcNS_11char_traitsIcEEEC2B7v160006EPNS_15basic_streambufIcS2_EE, symObjAddr: 0xA7B4, symBinAddr: 0x10000BBD4, symSize: 0x1D4 }
  - { offsetInCU: 0x3B, offset: 0xEEFB, size: 0x8, addend: 0x0, symName: _.str, symObjAddr: 0x5340, symBinAddr: 0x10003F0C0, symSize: 0x0 }
  - { offsetInCU: 0x6B, offset: 0xEF2B, size: 0x8, addend: 0x0, symName: _.str.1, symObjAddr: 0x53A0, symBinAddr: 0x10003F120, symSize: 0x0 }
  - { offsetInCU: 0x7C, offset: 0xEF3C, size: 0x8, addend: 0x0, symName: _.str.2, symObjAddr: 0x5400, symBinAddr: 0x10003F180, symSize: 0x0 }
  - { offsetInCU: 0x99, offset: 0xEF59, size: 0x8, addend: 0x0, symName: _.str.3, symObjAddr: 0x5460, symBinAddr: 0x10003F1E0, symSize: 0x0 }
  - { offsetInCU: 0x4779, offset: 0x13639, size: 0x8, addend: 0x0, symName: __ZNSt3__1eqB7v160006I11__mbstate_tEEbRKNS_4fposIT_EES6_, symObjAddr: 0x4DA8, symBinAddr: 0x10000E390, symSize: 0x48 }
  - { offsetInCU: 0x696B, offset: 0x1582B, size: 0x8, addend: 0x0, symName: __ZN4DiskC2ERKNSt3__112basic_stringIcNS0_11char_traitsIcEENS0_9allocatorIcEEEE, symObjAddr: 0x0, symBinAddr: 0x10000BE40, symSize: 0x7F4 }
  - { offsetInCU: 0x6A04, offset: 0x158C4, size: 0x8, addend: 0x0, symName: __ZNSt3__113basic_fstreamIcNS_11char_traitsIcEEEC1Ev, symObjAddr: 0x7F4, symBinAddr: 0x10000C634, symSize: 0x254 }
  - { offsetInCU: 0x6A30, offset: 0x158F0, size: 0x8, addend: 0x0, symName: __ZNSt3__113basic_fstreamIcNS_11char_traitsIcEEE4openERKNS_12basic_stringIcS2_NS_9allocatorIcEEEEj, symObjAddr: 0xA48, symBinAddr: 0x10000C888, symSize: 0x16C }
  - { offsetInCU: 0x6A76, offset: 0x15936, size: 0x8, addend: 0x0, symName: __ZNSt3__19basic_iosIcNS_11char_traitsIcEEE5clearB7v160006Ej, symObjAddr: 0xBE0, symBinAddr: 0x10000C9F4, symSize: 0x2C }
  - { offsetInCU: 0x6AAB, offset: 0x1596B, size: 0x8, addend: 0x0, symName: __ZNSt3__113basic_fstreamIcNS_11char_traitsIcEEE5closeEv, symObjAddr: 0xDA0, symBinAddr: 0x10000CA20, symSize: 0xD4 }
  - { offsetInCU: 0x6AD3, offset: 0x15993, size: 0x8, addend: 0x0, symName: __ZNKSt3__14fposI11__mbstate_tEcvxB7v160006Ev, symObjAddr: 0xE74, symBinAddr: 0x10000CAF4, symSize: 0x64 }
  - { offsetInCU: 0x6AFE, offset: 0x159BE, size: 0x8, addend: 0x0, symName: __ZNSt3__113basic_fstreamIcNS_11char_traitsIcEEED1Ev, symObjAddr: 0xED8, symBinAddr: 0x10000CB58, symSize: 0x7C }
  - { offsetInCU: 0x6B2A, offset: 0x159EA, size: 0x8, addend: 0x0, symName: __ZN4DiskC1ERKNSt3__112basic_stringIcNS0_11char_traitsIcEENS0_9allocatorIcEEEE, symObjAddr: 0xF60, symBinAddr: 0x10000CBD4, symSize: 0x34 }
  - { offsetInCU: 0x6B64, offset: 0x15A24, size: 0x8, addend: 0x0, symName: __ZN4DiskD2Ev, symObjAddr: 0xF94, symBinAddr: 0x10000CC08, symSize: 0xCC }
  - { offsetInCU: 0x6B90, offset: 0x15A50, size: 0x8, addend: 0x0, symName: __ZN4DiskD1Ev, symObjAddr: 0x1060, symBinAddr: 0x10000CCD4, symSize: 0x2C }
  - { offsetInCU: 0x6BBC, offset: 0x15A7C, size: 0x8, addend: 0x0, symName: __ZN4Disk10WriteBlockEjPKh, symObjAddr: 0x108C, symBinAddr: 0x10000CD00, symSize: 0x57C }
  - { offsetInCU: 0x6C68, offset: 0x15B28, size: 0x8, addend: 0x0, symName: __ZNSt3__113basic_ostreamIcNS_11char_traitsIcEEE5seekpExNS_8ios_base7seekdirE, symObjAddr: 0x1608, symBinAddr: 0x10000D27C, symSize: 0x644 }
  - { offsetInCU: 0x6CC4, offset: 0x15B84, size: 0x8, addend: 0x0, symName: __ZN4Disk9ReadBlockEjPh, symObjAddr: 0x1C74, symBinAddr: 0x10000D8C0, symSize: 0x1E0 }
  - { offsetInCU: 0x6D08, offset: 0x15BC8, size: 0x8, addend: 0x0, symName: __ZN4Disk16GetNextFreeBlockEv, symObjAddr: 0x1E54, symBinAddr: 0x10000DAA0, symSize: 0x8C }
  - { offsetInCU: 0x6D30, offset: 0x15BF0, size: 0x8, addend: 0x0, symName: __ZNSt3__113basic_fstreamIcNS_11char_traitsIcEEED2Ev, symObjAddr: 0x1EE0, symBinAddr: 0x10000DB2C, symSize: 0x258 }
  - { offsetInCU: 0x6D69, offset: 0x15C29, size: 0x8, addend: 0x0, symName: __ZThn16_NSt3__113basic_fstreamIcNS_11char_traitsIcEEED1Ev, symObjAddr: 0x2138, symBinAddr: 0x10000DD84, symSize: 0x1C }
  - { offsetInCU: 0x6D7F, offset: 0x15C3F, size: 0x8, addend: 0x0, symName: __ZTv0_n24_NSt3__113basic_fstreamIcNS_11char_traitsIcEEED1Ev, symObjAddr: 0x2154, symBinAddr: 0x10000DDA0, symSize: 0xB0 }
  - { offsetInCU: 0x6D95, offset: 0x15C55, size: 0x8, addend: 0x0, symName: __ZNSt3__113basic_fstreamIcNS_11char_traitsIcEEED0Ev, symObjAddr: 0x2204, symBinAddr: 0x10000DE50, symSize: 0x58 }
  - { offsetInCU: 0x6DC1, offset: 0x15C81, size: 0x8, addend: 0x0, symName: __ZThn16_NSt3__113basic_fstreamIcNS_11char_traitsIcEEED0Ev, symObjAddr: 0x225C, symBinAddr: 0x10000DEA8, symSize: 0x18 }
  - { offsetInCU: 0x6DD7, offset: 0x15C97, size: 0x8, addend: 0x0, symName: __ZTv0_n24_NSt3__113basic_fstreamIcNS_11char_traitsIcEEED0Ev, symObjAddr: 0x2274, symBinAddr: 0x10000DEC0, symSize: 0xA8 }
  - { offsetInCU: 0x6DEE, offset: 0x15CAE, size: 0x8, addend: 0x0, symName: __ZNSt3__114basic_iostreamIcNS_11char_traitsIcEEEC2B7v160006EPNS_15basic_streambufIcS2_EE, symObjAddr: 0x2410, symBinAddr: 0x10000DF68, symSize: 0x268 }
  - { offsetInCU: 0x6E34, offset: 0x15CF4, size: 0x8, addend: 0x0, symName: __ZNSt3__113basic_ostreamIcNS_11char_traitsIcEEEC2B7v160006Ev, symObjAddr: 0x28F8, symBinAddr: 0x10000E1D0, symSize: 0x17C }
  - { offsetInCU: 0x6E6A, offset: 0x15D2A, size: 0x8, addend: 0x0, symName: __ZNSt3__113basic_filebufIcNS_11char_traitsIcEEE4openERKNS_12basic_stringIcS2_NS_9allocatorIcEEEEj, symObjAddr: 0x2B68, symBinAddr: 0x10000E34C, symSize: 0x44 }
  - { offsetInCU: 0x6ECC, offset: 0x15D8C, size: 0x8, addend: 0x0, symName: __ZNSt3__115basic_streambufIcNS_11char_traitsIcEEE10pubseekoffB7v160006ExNS_8ios_base7seekdirEj, symObjAddr: 0x4DF0, symBinAddr: 0x10000E3D8, symSize: 0xE0 }
  - { offsetInCU: 0x6F1D, offset: 0x15DDD, size: 0x8, addend: 0x0, symName: __ZNSt3__14fposI11__mbstate_tEC1B7v160006Ex, symObjAddr: 0x4ED0, symBinAddr: 0x10000E4B8, symSize: 0x34 }
  - { offsetInCU: 0x6F55, offset: 0x15E15, size: 0x8, addend: 0x0, symName: __ZNSt3__14fposI11__mbstate_tEC2B7v160006Ex, symObjAddr: 0x4FA0, symBinAddr: 0x10000E4EC, symSize: 0x8C }
  - { offsetInCU: 0x53, offset: 0x15EC7, size: 0x8, addend: 0x0, symName: _.str, symObjAddr: 0x30000, symBinAddr: 0x10003F240, symSize: 0x0 }
  - { offsetInCU: 0x83, offset: 0x15EF7, size: 0x8, addend: 0x0, symName: _.str.1, symObjAddr: 0x30020, symBinAddr: 0x10003F260, symSize: 0x0 }
  - { offsetInCU: 0xA0, offset: 0x15F14, size: 0x8, addend: 0x0, symName: _.str.2, symObjAddr: 0x30060, symBinAddr: 0x10003F2A0, symSize: 0x0 }
  - { offsetInCU: 0xBD, offset: 0x15F31, size: 0x8, addend: 0x0, symName: _.str.3, symObjAddr: 0x300A0, symBinAddr: 0x10003F2E0, symSize: 0x0 }
  - { offsetInCU: 0xDA, offset: 0x15F4E, size: 0x8, addend: 0x0, symName: _.str.4, symObjAddr: 0x300C0, symBinAddr: 0x10003F300, symSize: 0x0 }
  - { offsetInCU: 0xF7, offset: 0x15F6B, size: 0x8, addend: 0x0, symName: _.str.5, symObjAddr: 0x30100, symBinAddr: 0x10003F340, symSize: 0x0 }
  - { offsetInCU: 0x114, offset: 0x15F88, size: 0x8, addend: 0x0, symName: _.str.6, symObjAddr: 0x30140, symBinAddr: 0x10003F380, symSize: 0x0 }
  - { offsetInCU: 0x125, offset: 0x15F99, size: 0x8, addend: 0x0, symName: _.str.7, symObjAddr: 0x30180, symBinAddr: 0x10003F3C0, symSize: 0x0 }
  - { offsetInCU: 0x142, offset: 0x15FB6, size: 0x8, addend: 0x0, symName: _.str.8, symObjAddr: 0x301A0, symBinAddr: 0x10003F3E0, symSize: 0x0 }
  - { offsetInCU: 0x15F, offset: 0x15FD3, size: 0x8, addend: 0x0, symName: _.str.9, symObjAddr: 0x301E0, symBinAddr: 0x10003F420, symSize: 0x0 }
  - { offsetInCU: 0x171, offset: 0x15FE5, size: 0x8, addend: 0x0, symName: _.str.10, symObjAddr: 0x30200, symBinAddr: 0x10003F440, symSize: 0x0 }
  - { offsetInCU: 0x9499, offset: 0x1F30D, size: 0x8, addend: 0x0, symName: __ZNSt3__14swapB7v160006IfEEvRT_S2_, symObjAddr: 0xF20, symBinAddr: 0x10000F524, symSize: 0x1D4 }
  - { offsetInCU: 0x94EB, offset: 0x1F35F, size: 0x8, addend: 0x0, symName: __ZNSt3__14swapB7v160006IjEEvRT_S2_, symObjAddr: 0x10F4, symBinAddr: 0x10000F6F8, symSize: 0x1D4 }
  - { offsetInCU: 0x953D, offset: 0x1F3B1, size: 0x8, addend: 0x0, symName: __ZNSt3__111make_sharedB7v160006I10BPTreeNodeJRbEvEENS_10shared_ptrIT_EEDpOT0_, symObjAddr: 0x213C, symBinAddr: 0x1000106CC, symSize: 0x1E8 }
  - { offsetInCU: 0x95A0, offset: 0x1F414, size: 0x8, addend: 0x0, symName: __ZNSt3__111make_sharedB7v160006I10BPTreeNodeJbEvEENS_10shared_ptrIT_EEDpOT0_, symObjAddr: 0x4A24, symBinAddr: 0x100012FB4, symSize: 0x1E8 }
  - { offsetInCU: 0x95E4, offset: 0x1F458, size: 0x8, addend: 0x0, symName: __ZNSt3__1neB7v160006I10BPTreeNodeEEbRKNS_10shared_ptrIT_EEDn, symObjAddr: 0x55D4, symBinAddr: 0x100013B64, symSize: 0x2C }
  - { offsetInCU: 0x9627, offset: 0x1F49B, size: 0x8, addend: 0x0, symName: __ZNSt3__119__debug_db_insert_cB7v160006INS_6vectorIfNS_9allocatorIfEEEEEEvPT_, symObjAddr: 0x59E0, symBinAddr: 0x100013F70, symSize: 0x10 }
  - { offsetInCU: 0x9658, offset: 0x1F4CC, size: 0x8, addend: 0x0, symName: __ZNSt3__119__debug_db_insert_cB7v160006INS_6vectorINS_10shared_ptrI10BPTreeNodeEENS_9allocatorIS4_EEEEEEvPT_, symObjAddr: 0x5E18, symBinAddr: 0x1000143A8, symSize: 0x10 }
  - { offsetInCU: 0x9689, offset: 0x1F4FD, size: 0x8, addend: 0x0, symName: __ZNSt3__119__debug_db_insert_cB7v160006INS_6vectorIjNS_9allocatorIjEEEEEEvPT_, symObjAddr: 0x6250, symBinAddr: 0x1000147E0, symSize: 0x10 }
  - { offsetInCU: 0x96BA, offset: 0x1F52E, size: 0x8, addend: 0x0, symName: __ZNSt3__118__debug_db_erase_cB7v160006INS_6vectorIfNS_9allocatorIfEEEEEEvPT_, symObjAddr: 0x6938, symBinAddr: 0x100014EC8, symSize: 0x10 }
  - { offsetInCU: 0x96EB, offset: 0x1F55F, size: 0x8, addend: 0x0, symName: __ZNSt3__112__to_addressB7v160006IfEEPT_S2_, symObjAddr: 0x6B98, symBinAddr: 0x10001511C, symSize: 0x14 }
  - { offsetInCU: 0x9720, offset: 0x1F594, size: 0x8, addend: 0x0, symName: __ZNSt3__119__libcpp_deallocateB7v160006EPvmm, symObjAddr: 0x6D90, symBinAddr: 0x100015314, symSize: 0x30 }
  - { offsetInCU: 0x9769, offset: 0x1F5DD, size: 0x8, addend: 0x0, symName: __ZNSt3__127__do_deallocate_handle_sizeB7v160006IJEEEvPvmDpT_, symObjAddr: 0x6DC0, symBinAddr: 0x100015344, symSize: 0x28 }
  - { offsetInCU: 0x97A9, offset: 0x1F61D, size: 0x8, addend: 0x0, symName: __ZNSt3__124__libcpp_operator_deleteB7v160006IJPvEEEvDpT_, symObjAddr: 0x6DE8, symBinAddr: 0x10001536C, symSize: 0x24 }
  - { offsetInCU: 0x97DF, offset: 0x1F653, size: 0x8, addend: 0x0, symName: __ZNSt3__118__debug_db_erase_cB7v160006INS_6vectorINS_10shared_ptrI10BPTreeNodeEENS_9allocatorIS4_EEEEEEvPT_, symObjAddr: 0x746C, symBinAddr: 0x1000159F0, symSize: 0x10 }
  - { offsetInCU: 0x9810, offset: 0x1F684, size: 0x8, addend: 0x0, symName: __ZNSt3__112__to_addressB7v160006INS_10shared_ptrI10BPTreeNodeEEEEPT_S5_, symObjAddr: 0x76C0, symBinAddr: 0x100015C44, symSize: 0x14 }
  - { offsetInCU: 0x9845, offset: 0x1F6B9, size: 0x8, addend: 0x0, symName: __ZNSt3__13maxB7v160006ImEERKT_S3_S3_, symObjAddr: 0x966C, symBinAddr: 0x100017BF0, symSize: 0x2C }
  - { offsetInCU: 0x9888, offset: 0x1F6FC, size: 0x8, addend: 0x0, symName: __ZNSt3__13minB7v160006ImEERKT_S3_S3_, symObjAddr: 0x9698, symBinAddr: 0x100017C1C, symSize: 0x2C }
  - { offsetInCU: 0x98CB, offset: 0x1F73F, size: 0x8, addend: 0x0, symName: __ZNSt3__13minB7v160006ImNS_6__lessImmEEEERKT_S5_S5_T0_, symObjAddr: 0x9724, symBinAddr: 0x100017C94, symSize: 0x1E8 }
  - { offsetInCU: 0x9966, offset: 0x1F7DA, size: 0x8, addend: 0x0, symName: __ZNSt3__120__throw_length_errorB7v160006EPKc, symObjAddr: 0x9A1C, symBinAddr: 0x100017F84, symSize: 0x68 }
  - { offsetInCU: 0x998F, offset: 0x1F803, size: 0x8, addend: 0x0, symName: __ZNSt3__13maxB7v160006ImNS_6__lessImmEEEERKT_S5_S5_T0_, symObjAddr: 0x9B44, symBinAddr: 0x1000180AC, symSize: 0x1E8 }
  - { offsetInCU: 0x99EF, offset: 0x1F863, size: 0x8, addend: 0x0, symName: __ZNSt3__119__allocate_at_leastB7v160006INS_9allocatorIfEEEENS_19__allocation_resultINS_16allocator_traitsIT_E7pointerEEERS5_m, symObjAddr: 0xA288, symBinAddr: 0x1000187F0, symSize: 0x28C }
  - { offsetInCU: 0x9A34, offset: 0x1F8A8, size: 0x8, addend: 0x0, symName: __ZNSt3__142__uninitialized_allocator_move_if_noexceptB7v160006INS_9allocatorIfEENS_16reverse_iteratorIPfEES5_fvEET1_RT_T0_S9_S6_, symObjAddr: 0xA7D4, symBinAddr: 0x100018CB8, symSize: 0x550 }
  - { offsetInCU: 0x9ABF, offset: 0x1F933, size: 0x8, addend: 0x0, symName: __ZNSt3__14swapB7v160006IPfEEvRT_S3_, symObjAddr: 0xADBC, symBinAddr: 0x1000192A0, symSize: 0x134 }
  - { offsetInCU: 0x9B11, offset: 0x1F985, size: 0x8, addend: 0x0, symName: __ZNSt3__125__debug_db_invalidate_allB7v160006INS_6vectorIfNS_9allocatorIfEEEEEEvPT_, symObjAddr: 0xAFC4, symBinAddr: 0x1000194A8, symSize: 0x10 }
  - { offsetInCU: 0x9B42, offset: 0x1F9B6, size: 0x8, addend: 0x0, symName: __ZNSt3__1neB7v160006IPfS1_EEbRKNS_16reverse_iteratorIT_EERKNS2_IT0_EE, symObjAddr: 0xAFD4, symBinAddr: 0x1000194B8, symSize: 0x48 }
  - { offsetInCU: 0x9BB5, offset: 0x1FA29, size: 0x8, addend: 0x0, symName: __ZNSt3__114__construct_atB7v160006IfJfEPfEEPT_S3_DpOT0_, symObjAddr: 0xB01C, symBinAddr: 0x100019500, symSize: 0x108 }
  - { offsetInCU: 0x9C27, offset: 0x1FA9B, size: 0x8, addend: 0x0, symName: __ZNSt3__112__to_addressB7v160006INS_16reverse_iteratorIPfEEvEENS_5decayIDTclsr19__to_address_helperIT_EE6__callclsr3stdE7declvalIRKS5_EEEEE4typeES7_, symObjAddr: 0xB124, symBinAddr: 0x100019608, symSize: 0x24 }
  - { offsetInCU: 0x9C5D, offset: 0x1FAD1, size: 0x8, addend: 0x0, symName: __ZNSt3__14moveB7v160006INS_16reverse_iteratorIPfEES3_EET0_T_S5_S4_, symObjAddr: 0xB228, symBinAddr: 0x10001970C, symSize: 0x4B0 }
  - { offsetInCU: 0x9CEE, offset: 0x1FB62, size: 0x8, addend: 0x0, symName: __ZNSt3__16__moveB7v160006INS_17_ClassicAlgPolicyENS_16reverse_iteratorIPfEES4_S4_EENS_4pairIT0_T2_EES6_T1_S7_, symObjAddr: 0xB754, symBinAddr: 0x100019C38, symSize: 0x424 }
  - { offsetInCU: 0x9D66, offset: 0x1FBDA, size: 0x8, addend: 0x0, symName: __ZNSt3__123__dispatch_copy_or_moveB7v160006INS_17_ClassicAlgPolicyENS_11__move_loopIS1_EENS_14__move_trivialENS_16reverse_iteratorIPfEES7_S7_EENS_4pairIT2_T4_EES9_T3_SA_, symObjAddr: 0xBB78, symBinAddr: 0x10001A05C, symSize: 0x434 }
  - { offsetInCU: 0x9DF0, offset: 0x1FC64, size: 0x8, addend: 0x0, symName: __ZNSt3__121__unwrap_and_dispatchB7v160006INS_10__overloadINS_11__move_loopINS_17_ClassicAlgPolicyEEENS_14__move_trivialEEENS_16reverse_iteratorIPfEES9_S9_Li0EEENS_4pairIT0_T2_EESB_T1_SC_, symObjAddr: 0xBFAC, symBinAddr: 0x10001A490, symSize: 0x880 }
  - { offsetInCU: 0x9E97, offset: 0x1FD0B, size: 0x8, addend: 0x0, symName: __ZNSt3__114__unwrap_rangeB7v160006INS_16reverse_iteratorIPfEES3_EENS_4pairIT0_S5_EET_S7_, symObjAddr: 0xC82C, symBinAddr: 0x10001AD10, symSize: 0x448 }
  - { offsetInCU: 0xA071, offset: 0x1FEE5, size: 0x8, addend: 0x0, symName: __ZNSt3__113__unwrap_iterB7v160006INS_16reverse_iteratorIPfEENS_18__unwrap_iter_implIS3_Lb0EEELi0EEEDTclsrT0_8__unwrapclsr3stdE7declvalIT_EEEES7_, symObjAddr: 0xD06C, symBinAddr: 0x10001B550, symSize: 0x2EC }
  - { offsetInCU: 0xA0BA, offset: 0x1FF2E, size: 0x8, addend: 0x0, symName: __ZNSt3__19make_pairB7v160006INS_16reverse_iteratorIPfEES3_EENS_4pairINS_18__unwrap_ref_decayIT_E4typeENS5_IT0_E4typeEEEOS6_OS9_, symObjAddr: 0xD358, symBinAddr: 0x10001B83C, symSize: 0x38 }
  - { offsetInCU: 0xA109, offset: 0x1FF7D, size: 0x8, addend: 0x0, symName: __ZNSt3__114__rewrap_rangeB7v160006INS_16reverse_iteratorIPfEES3_EET_S4_T0_, symObjAddr: 0xD390, symBinAddr: 0x10001B874, symSize: 0x3D4 }
  - { offsetInCU: 0xA15D, offset: 0x1FFD1, size: 0x8, addend: 0x0, symName: __ZNSt3__113__rewrap_iterB7v160006INS_16reverse_iteratorIPfEES3_NS_18__unwrap_iter_implIS3_Lb0EEEEET_S6_T0_, symObjAddr: 0xD764, symBinAddr: 0x10001BC48, symSize: 0x3FC }
  - { offsetInCU: 0xA2F6, offset: 0x2016A, size: 0x8, addend: 0x0, symName: __ZNSt3__112__to_addressB7v160006IjEEPT_S2_, symObjAddr: 0xEE1C, symBinAddr: 0x10001D300, symSize: 0x14 }
  - { offsetInCU: 0xA32B, offset: 0x2019F, size: 0x8, addend: 0x0, symName: __ZNSt3__119__allocate_at_leastB7v160006INS_9allocatorIjEEEENS_19__allocation_resultINS_16allocator_traitsIT_E7pointerEEERS5_m, symObjAddr: 0x10A30, symBinAddr: 0x10001EF14, symSize: 0x28C }
  - { offsetInCU: 0xA370, offset: 0x201E4, size: 0x8, addend: 0x0, symName: __ZNSt3__142__uninitialized_allocator_move_if_noexceptB7v160006INS_9allocatorIjEENS_16reverse_iteratorIPjEES5_jvEET1_RT_T0_S9_S6_, symObjAddr: 0x10FD8, symBinAddr: 0x10001F4BC, symSize: 0x550 }
  - { offsetInCU: 0xA3FB, offset: 0x2026F, size: 0x8, addend: 0x0, symName: __ZNSt3__14swapB7v160006IPjEEvRT_S3_, symObjAddr: 0x115C0, symBinAddr: 0x10001FAA4, symSize: 0x134 }
  - { offsetInCU: 0xA44D, offset: 0x202C1, size: 0x8, addend: 0x0, symName: __ZNSt3__125__debug_db_invalidate_allB7v160006INS_6vectorIjNS_9allocatorIjEEEEEEvPT_, symObjAddr: 0x117C8, symBinAddr: 0x10001FCAC, symSize: 0x10 }
  - { offsetInCU: 0xA47E, offset: 0x202F2, size: 0x8, addend: 0x0, symName: __ZNSt3__1neB7v160006IPjS1_EEbRKNS_16reverse_iteratorIT_EERKNS2_IT0_EE, symObjAddr: 0x117D8, symBinAddr: 0x10001FCBC, symSize: 0x48 }
  - { offsetInCU: 0xA4F1, offset: 0x20365, size: 0x8, addend: 0x0, symName: __ZNSt3__114__construct_atB7v160006IjJjEPjEEPT_S3_DpOT0_, symObjAddr: 0x11820, symBinAddr: 0x10001FD04, symSize: 0x108 }
  - { offsetInCU: 0xA563, offset: 0x203D7, size: 0x8, addend: 0x0, symName: __ZNSt3__112__to_addressB7v160006INS_16reverse_iteratorIPjEEvEENS_5decayIDTclsr19__to_address_helperIT_EE6__callclsr3stdE7declvalIRKS5_EEEEE4typeES7_, symObjAddr: 0x11928, symBinAddr: 0x10001FE0C, symSize: 0x24 }
  - { offsetInCU: 0xA599, offset: 0x2040D, size: 0x8, addend: 0x0, symName: __ZNSt3__14moveB7v160006INS_16reverse_iteratorIPjEES3_EET0_T_S5_S4_, symObjAddr: 0x11A2C, symBinAddr: 0x10001FF10, symSize: 0x4B0 }
  - { offsetInCU: 0xA62A, offset: 0x2049E, size: 0x8, addend: 0x0, symName: __ZNSt3__16__moveB7v160006INS_17_ClassicAlgPolicyENS_16reverse_iteratorIPjEES4_S4_EENS_4pairIT0_T2_EES6_T1_S7_, symObjAddr: 0x11F58, symBinAddr: 0x10002043C, symSize: 0x424 }
  - { offsetInCU: 0xA6A2, offset: 0x20516, size: 0x8, addend: 0x0, symName: __ZNSt3__123__dispatch_copy_or_moveB7v160006INS_17_ClassicAlgPolicyENS_11__move_loopIS1_EENS_14__move_trivialENS_16reverse_iteratorIPjEES7_S7_EENS_4pairIT2_T4_EES9_T3_SA_, symObjAddr: 0x1237C, symBinAddr: 0x100020860, symSize: 0x434 }
  - { offsetInCU: 0xA72C, offset: 0x205A0, size: 0x8, addend: 0x0, symName: __ZNSt3__121__unwrap_and_dispatchB7v160006INS_10__overloadINS_11__move_loopINS_17_ClassicAlgPolicyEEENS_14__move_trivialEEENS_16reverse_iteratorIPjEES9_S9_Li0EEENS_4pairIT0_T2_EESB_T1_SC_, symObjAddr: 0x127B0, symBinAddr: 0x100020C94, symSize: 0x880 }
  - { offsetInCU: 0xA7D3, offset: 0x20647, size: 0x8, addend: 0x0, symName: __ZNSt3__114__unwrap_rangeB7v160006INS_16reverse_iteratorIPjEES3_EENS_4pairIT0_S5_EET_S7_, symObjAddr: 0x13030, symBinAddr: 0x100021514, symSize: 0x448 }
  - { offsetInCU: 0xA8D4, offset: 0x20748, size: 0x8, addend: 0x0, symName: __ZNSt3__113__unwrap_iterB7v160006INS_16reverse_iteratorIPjEENS_18__unwrap_iter_implIS3_Lb0EEELi0EEEDTclsrT0_8__unwrapclsr3stdE7declvalIT_EEEES7_, symObjAddr: 0x13870, symBinAddr: 0x100021D54, symSize: 0x2EC }
  - { offsetInCU: 0xA91D, offset: 0x20791, size: 0x8, addend: 0x0, symName: __ZNSt3__19make_pairB7v160006INS_16reverse_iteratorIPjEES3_EENS_4pairINS_18__unwrap_ref_decayIT_E4typeENS5_IT0_E4typeEEEOS6_OS9_, symObjAddr: 0x13B5C, symBinAddr: 0x100022040, symSize: 0x38 }
  - { offsetInCU: 0xA96C, offset: 0x207E0, size: 0x8, addend: 0x0, symName: __ZNSt3__114__rewrap_rangeB7v160006INS_16reverse_iteratorIPjEES3_EET_S4_T0_, symObjAddr: 0x13B94, symBinAddr: 0x100022078, symSize: 0x3D4 }
  - { offsetInCU: 0xA9C0, offset: 0x20834, size: 0x8, addend: 0x0, symName: __ZNSt3__113__rewrap_iterB7v160006INS_16reverse_iteratorIPjEES3_NS_18__unwrap_iter_implIS3_Lb0EEEEET_S6_T0_, symObjAddr: 0x13F68, symBinAddr: 0x10002244C, symSize: 0x3FC }
  - { offsetInCU: 0xAA8A, offset: 0x208FE, size: 0x8, addend: 0x0, symName: __ZNSt3__134__libcpp_atomic_refcount_incrementB7v160006IlEET_RS1_, symObjAddr: 0x17124, symBinAddr: 0x1000235C0, symSize: 0x80 }
  - { offsetInCU: 0xAABF, offset: 0x20933, size: 0x8, addend: 0x0, symName: __ZNSt3__115allocate_sharedB7v160006I10BPTreeNodeNS_9allocatorIS1_EEJRbEvEENS_10shared_ptrIT_EERKT0_DpOT1_, symObjAddr: 0x17420, symBinAddr: 0x100023640, symSize: 0x300 }
  - { offsetInCU: 0xADD4, offset: 0x20C48, size: 0x8, addend: 0x0, symName: __ZNSt3__118__debug_db_erase_cB7v160006INS_6vectorIjNS_9allocatorIjEEEEEEvPT_, symObjAddr: 0x18EA4, symBinAddr: 0x1000250C4, symSize: 0x10 }
  - { offsetInCU: 0xAE5D, offset: 0x20CD1, size: 0x8, addend: 0x0, symName: __ZNSt3__121__libcpp_relaxed_loadB7v160006IlEET_PKS1_, symObjAddr: 0x19754, symBinAddr: 0x100025974, symSize: 0x68 }
  - { offsetInCU: 0xAEC0, offset: 0x20D34, size: 0x8, addend: 0x0, symName: __ZNSt3__14swapB7v160006IP10BPTreeNodeEEvRT_S4_, symObjAddr: 0x19BF8, symBinAddr: 0x100025E18, symSize: 0x134 }
  - { offsetInCU: 0xAF12, offset: 0x20D86, size: 0x8, addend: 0x0, symName: __ZNSt3__14swapB7v160006IPNS_19__shared_weak_countEEEvRT_S4_, symObjAddr: 0x19D2C, symBinAddr: 0x100025F4C, symSize: 0x134 }
  - { offsetInCU: 0xAF64, offset: 0x20DD8, size: 0x8, addend: 0x0, symName: __ZNSt3__119__allocate_at_leastB7v160006INS_9allocatorINS_10shared_ptrI10BPTreeNodeEEEEEENS_19__allocation_resultINS_16allocator_traitsIT_E7pointerEEERS8_m, symObjAddr: 0x1C12C, symBinAddr: 0x10002834C, symSize: 0x28C }
  - { offsetInCU: 0xAFA9, offset: 0x20E1D, size: 0x8, addend: 0x0, symName: __ZNSt3__142__uninitialized_allocator_move_if_noexceptB7v160006INS_9allocatorINS_10shared_ptrI10BPTreeNodeEEEENS_16reverse_iteratorIPS4_EES8_S8_EET2_RT_T0_T1_S9_, symObjAddr: 0x1C5F4, symBinAddr: 0x100028814, symSize: 0x558 }
  - { offsetInCU: 0xB05E, offset: 0x20ED2, size: 0x8, addend: 0x0, symName: __ZNSt3__14swapB7v160006IPNS_10shared_ptrI10BPTreeNodeEEEEvRT_S6_, symObjAddr: 0x1CBE4, symBinAddr: 0x100028E04, symSize: 0x134 }
  - { offsetInCU: 0xB0B0, offset: 0x20F24, size: 0x8, addend: 0x0, symName: __ZNSt3__125__debug_db_invalidate_allB7v160006INS_6vectorINS_10shared_ptrI10BPTreeNodeEENS_9allocatorIS4_EEEEEEvPT_, symObjAddr: 0x1CDEC, symBinAddr: 0x10002900C, symSize: 0x10 }
  - { offsetInCU: 0xB0E1, offset: 0x20F55, size: 0x8, addend: 0x0, symName: __ZNSt3__122__make_exception_guardB7v160006INS_29_AllocatorDestroyRangeReverseINS_9allocatorINS_10shared_ptrI10BPTreeNodeEEEENS_16reverse_iteratorIPS5_EEEEEENS_28__exception_guard_exceptionsIT_EESC_, symObjAddr: 0x1CDFC, symBinAddr: 0x10002901C, symSize: 0x1F8 }
  - { offsetInCU: 0xB118, offset: 0x20F8C, size: 0x8, addend: 0x0, symName: __ZNSt3__1neB7v160006IPNS_10shared_ptrI10BPTreeNodeEES4_EEbRKNS_16reverse_iteratorIT_EERKNS5_IT0_EE, symObjAddr: 0x1D038, symBinAddr: 0x100029258, symSize: 0x48 }
  - { offsetInCU: 0xB164, offset: 0x20FD8, size: 0x8, addend: 0x0, symName: __ZNSt3__112__to_addressB7v160006INS_16reverse_iteratorIPNS_10shared_ptrI10BPTreeNodeEEEEvEENS_5decayIDTclsr19__to_address_helperIT_EE6__callclsr3stdE7declvalIRKS8_EEEEE4typeESA_, symObjAddr: 0x1D080, symBinAddr: 0x1000292A0, symSize: 0x24 }
  - { offsetInCU: 0xB1C4, offset: 0x21038, size: 0x8, addend: 0x0, symName: __ZNSt3__119__allocator_destroyB7v160006INS_9allocatorINS_10shared_ptrI10BPTreeNodeEEEENS_16reverse_iteratorINS6_IPS4_EEEES9_EEvRT_T0_T1_, symObjAddr: 0x1D8E4, symBinAddr: 0x100029B04, symSize: 0x70 }
  - { offsetInCU: 0xB22A, offset: 0x2109E, size: 0x8, addend: 0x0, symName: __ZNSt3__1neB7v160006INS_16reverse_iteratorIPNS_10shared_ptrI10BPTreeNodeEEEES6_EEbRKNS1_IT_EERKNS1_IT0_EE, symObjAddr: 0x1DB9C, symBinAddr: 0x100029DBC, symSize: 0x2CC }
  - { offsetInCU: 0xB278, offset: 0x210EC, size: 0x8, addend: 0x0, symName: __ZNSt3__112__to_addressB7v160006INS_16reverse_iteratorINS1_IPNS_10shared_ptrI10BPTreeNodeEEEEEEvEENS_5decayIDTclsr19__to_address_helperIT_EE6__callclsr3stdE7declvalIRKS9_EEEEE4typeESB_, symObjAddr: 0x1DE68, symBinAddr: 0x10002A088, symSize: 0x24 }
  - { offsetInCU: 0xB2D8, offset: 0x2114C, size: 0x8, addend: 0x0, symName: __ZNSt3__1miB7v160006IPKNS_10shared_ptrI10BPTreeNodeEEPS3_EENS_11__wrap_iterIT_E15difference_typeERKS9_RKNS7_IT0_EE, symObjAddr: 0x21D98, symBinAddr: 0x10002DFB8, symSize: 0x48 }
  - { offsetInCU: 0xB357, offset: 0x211CB, size: 0x8, addend: 0x0, symName: __ZNSt3__113move_backwardB7v160006IPNS_10shared_ptrI10BPTreeNodeEES4_EET0_T_S6_S5_, symObjAddr: 0x2341C, symBinAddr: 0x10002F63C, symSize: 0x254 }
  - { offsetInCU: 0xB3B4, offset: 0x21228, size: 0x8, addend: 0x0, symName: __ZNSt3__115__move_backwardB7v160006INS_17_ClassicAlgPolicyEPNS_10shared_ptrI10BPTreeNodeEES5_S5_EENS_4pairIT0_T2_EES7_T1_S8_, symObjAddr: 0x2388C, symBinAddr: 0x10002FAAC, symSize: 0x22C }
  - { offsetInCU: 0xB423, offset: 0x21297, size: 0x8, addend: 0x0, symName: __ZNSt3__123__dispatch_copy_or_moveB7v160006INS_17_ClassicAlgPolicyENS_20__move_backward_loopIS1_EENS_23__move_backward_trivialEPNS_10shared_ptrI10BPTreeNodeEES8_S8_EENS_4pairIT2_T4_EESA_T3_SB_, symObjAddr: 0x23AB8, symBinAddr: 0x10002FCD8, symSize: 0x2D0 }
  - { offsetInCU: 0xB4A4, offset: 0x21318, size: 0x8, addend: 0x0, symName: __ZNSt3__121__unwrap_and_dispatchB7v160006INS_20__move_backward_loopINS_17_ClassicAlgPolicyEEEPNS_10shared_ptrI10BPTreeNodeEES7_S7_Li0EEENS_4pairIT0_T2_EES9_T1_SA_, symObjAddr: 0x23D88, symBinAddr: 0x10002FFA8, symSize: 0x5A4 }
  - { offsetInCU: 0xB540, offset: 0x213B4, size: 0x8, addend: 0x0, symName: __ZNSt3__121__unwrap_and_dispatchB7v160006INS_10__overloadINS_20__move_backward_loopINS_17_ClassicAlgPolicyEEENS_23__move_backward_trivialEEEPNS_10shared_ptrI10BPTreeNodeEESA_SA_Li0EEENS_4pairIT0_T2_EESC_T1_SD_, symObjAddr: 0x2432C, symBinAddr: 0x10003054C, symSize: 0x5A4 }
  - { offsetInCU: 0xB5DC, offset: 0x21450, size: 0x8, addend: 0x0, symName: __ZNSt3__114__unwrap_rangeB7v160006IPNS_10shared_ptrI10BPTreeNodeEES4_EENS_4pairIT0_S6_EET_S8_, symObjAddr: 0x248D0, symBinAddr: 0x100030AF0, symSize: 0x350 }
  - { offsetInCU: 0xB729, offset: 0x2159D, size: 0x8, addend: 0x0, symName: __ZNSt3__113__unwrap_iterB7v160006IPNS_10shared_ptrI10BPTreeNodeEENS_18__unwrap_iter_implIS4_Lb1EEELi0EEEDTclsrT0_8__unwrapclsr3stdE7declvalIT_EEEES8_, symObjAddr: 0x25110, symBinAddr: 0x100031330, symSize: 0x24 }
  - { offsetInCU: 0xB76E, offset: 0x215E2, size: 0x8, addend: 0x0, symName: __ZNSt3__19make_pairB7v160006IPNS_10shared_ptrI10BPTreeNodeEES4_EENS_4pairINS_18__unwrap_ref_decayIT_E4typeENS6_IT0_E4typeEEEOS7_OSA_, symObjAddr: 0x25134, symBinAddr: 0x100031354, symSize: 0x20C }
  - { offsetInCU: 0xB7BF, offset: 0x21633, size: 0x8, addend: 0x0, symName: __ZNSt3__114__rewrap_rangeB7v160006IPNS_10shared_ptrI10BPTreeNodeEES4_EET_S5_T0_, symObjAddr: 0x25340, symBinAddr: 0x100031560, symSize: 0x2C }
  - { offsetInCU: 0xB80B, offset: 0x2167F, size: 0x8, addend: 0x0, symName: __ZNSt3__113__rewrap_iterB7v160006IPNS_10shared_ptrI10BPTreeNodeEES4_NS_18__unwrap_iter_implIS4_Lb1EEEEET_S7_T0_, symObjAddr: 0x2536C, symBinAddr: 0x10003158C, symSize: 0x5C }
  - { offsetInCU: 0xB8D8, offset: 0x2174C, size: 0x8, addend: 0x0, symName: __ZNSt3__14moveB7v160006IPNS_10shared_ptrI10BPTreeNodeEES4_EET0_T_S6_S5_, symObjAddr: 0x25638, symBinAddr: 0x100031858, symSize: 0x254 }
  - { offsetInCU: 0xB935, offset: 0x217A9, size: 0x8, addend: 0x0, symName: __ZNSt3__16__moveB7v160006INS_17_ClassicAlgPolicyEPNS_10shared_ptrI10BPTreeNodeEES5_S5_EENS_4pairIT0_T2_EES7_T1_S8_, symObjAddr: 0x25ED4, symBinAddr: 0x1000320F4, symSize: 0x22C }
  - { offsetInCU: 0xB9A4, offset: 0x21818, size: 0x8, addend: 0x0, symName: __ZNSt3__123__dispatch_copy_or_moveB7v160006INS_17_ClassicAlgPolicyENS_11__move_loopIS1_EENS_14__move_trivialEPNS_10shared_ptrI10BPTreeNodeEES8_S8_EENS_4pairIT2_T4_EESA_T3_SB_, symObjAddr: 0x26100, symBinAddr: 0x100032320, symSize: 0x2D0 }
  - { offsetInCU: 0xBA25, offset: 0x21899, size: 0x8, addend: 0x0, symName: __ZNSt3__121__unwrap_and_dispatchB7v160006INS_11__move_loopINS_17_ClassicAlgPolicyEEEPNS_10shared_ptrI10BPTreeNodeEES7_S7_Li0EEENS_4pairIT0_T2_EES9_T1_SA_, symObjAddr: 0x263D0, symBinAddr: 0x1000325F0, symSize: 0x5A4 }
  - { offsetInCU: 0xBAC1, offset: 0x21935, size: 0x8, addend: 0x0, symName: __ZNSt3__121__unwrap_and_dispatchB7v160006INS_10__overloadINS_11__move_loopINS_17_ClassicAlgPolicyEEENS_14__move_trivialEEEPNS_10shared_ptrI10BPTreeNodeEESA_SA_Li0EEENS_4pairIT0_T2_EESC_T1_SD_, symObjAddr: 0x26974, symBinAddr: 0x100032B94, symSize: 0x5A4 }
  - { offsetInCU: 0xBB5D, offset: 0x219D1, size: 0x8, addend: 0x0, symName: __ZNSt3__18distanceB7v160006INS_13move_iteratorIPNS_10shared_ptrI10BPTreeNodeEEEEEENS_15iterator_traitsIT_E15difference_typeES8_S8_, symObjAddr: 0x27340, symBinAddr: 0x100033560, symSize: 0x350 }
  - { offsetInCU: 0xBBA8, offset: 0x21A1C, size: 0x8, addend: 0x0, symName: __ZNSt3__110__distanceB7v160006INS_13move_iteratorIPNS_10shared_ptrI10BPTreeNodeEEEEEENS_15iterator_traitsIT_E15difference_typeES8_S8_NS_26random_access_iterator_tagE, symObjAddr: 0x27758, symBinAddr: 0x100033978, symSize: 0x274 }
  - { offsetInCU: 0xBBFF, offset: 0x21A73, size: 0x8, addend: 0x0, symName: __ZNSt3__1miB7v160006IPNS_10shared_ptrI10BPTreeNodeEES4_EENS_13move_iteratorIT_E15difference_typeERKS7_RKNS5_IT0_EE, symObjAddr: 0x279CC, symBinAddr: 0x100033BEC, symSize: 0x48 }
  - { offsetInCU: 0xBC4E, offset: 0x21AC2, size: 0x8, addend: 0x0, symName: __ZNSt3__142__uninitialized_allocator_move_if_noexceptB7v160006INS_9allocatorINS_10shared_ptrI10BPTreeNodeEEEEPS4_S6_S6_EET2_RT_T0_T1_S7_, symObjAddr: 0x27AE4, symBinAddr: 0x100033D04, symSize: 0x534 }
  - { offsetInCU: 0xBCFA, offset: 0x21B6E, size: 0x8, addend: 0x0, symName: __ZNSt3__122__make_exception_guardB7v160006INS_29_AllocatorDestroyRangeReverseINS_9allocatorINS_10shared_ptrI10BPTreeNodeEEEEPS5_EEEENS_28__exception_guard_exceptionsIT_EESA_, symObjAddr: 0x28018, symBinAddr: 0x100034238, symSize: 0x1F8 }
  - { offsetInCU: 0xBD31, offset: 0x21BA5, size: 0x8, addend: 0x0, symName: __ZNSt3__119__allocator_destroyB7v160006INS_9allocatorINS_10shared_ptrI10BPTreeNodeEEEENS_16reverse_iteratorIPS4_EES8_EEvRT_T0_T1_, symObjAddr: 0x2892C, symBinAddr: 0x100034B4C, symSize: 0x2B8 }
  - { offsetInCU: 0xBD9E, offset: 0x21C12, size: 0x8, addend: 0x0, symName: __ZNSt3__1miB7v160006IPKfPfEENS_11__wrap_iterIT_E15difference_typeERKS6_RKNS4_IT0_EE, symObjAddr: 0x28F90, symBinAddr: 0x1000351B0, symSize: 0x48 }
  - { offsetInCU: 0xBE1D, offset: 0x21C91, size: 0x8, addend: 0x0, symName: __ZNSt3__113move_backwardB7v160006IPfS1_EET0_T_S3_S2_, symObjAddr: 0x2A614, symBinAddr: 0x100036834, symSize: 0x254 }
  - { offsetInCU: 0xBE7A, offset: 0x21CEE, size: 0x8, addend: 0x0, symName: __ZNSt3__115__move_backwardB7v160006INS_17_ClassicAlgPolicyEPfS2_S2_EENS_4pairIT0_T2_EES4_T1_S5_, symObjAddr: 0x2A96C, symBinAddr: 0x100036B8C, symSize: 0x22C }
  - { offsetInCU: 0xBEE9, offset: 0x21D5D, size: 0x8, addend: 0x0, symName: __ZNSt3__123__dispatch_copy_or_moveB7v160006INS_17_ClassicAlgPolicyENS_20__move_backward_loopIS1_EENS_23__move_backward_trivialEPfS5_S5_EENS_4pairIT2_T4_EES7_T3_S8_, symObjAddr: 0x2AB98, symBinAddr: 0x100036DB8, symSize: 0x23C }
  - { offsetInCU: 0xBF6A, offset: 0x21DDE, size: 0x8, addend: 0x0, symName: __ZNSt3__121__unwrap_and_dispatchB7v160006INS_10__overloadINS_20__move_backward_loopINS_17_ClassicAlgPolicyEEENS_23__move_backward_trivialEEEPfS7_S7_Li0EEENS_4pairIT0_T2_EES9_T1_SA_, symObjAddr: 0x2ADD4, symBinAddr: 0x100036FF4, symSize: 0x5A4 }
  - { offsetInCU: 0xC006, offset: 0x21E7A, size: 0x8, addend: 0x0, symName: __ZNSt3__114__unwrap_rangeB7v160006IPfS1_EENS_4pairIT0_S3_EET_S5_, symObjAddr: 0x2B378, symBinAddr: 0x100037598, symSize: 0x350 }
  - { offsetInCU: 0xC148, offset: 0x21FBC, size: 0x8, addend: 0x0, symName: __ZNSt3__113__unwrap_iterB7v160006IPfNS_18__unwrap_iter_implIS1_Lb1EEELi0EEEDTclsrT0_8__unwrapclsr3stdE7declvalIT_EEEES5_, symObjAddr: 0x2B8F8, symBinAddr: 0x100037B18, symSize: 0x24 }
  - { offsetInCU: 0xC18D, offset: 0x22001, size: 0x8, addend: 0x0, symName: __ZNSt3__19make_pairB7v160006IPfS1_EENS_4pairINS_18__unwrap_ref_decayIT_E4typeENS3_IT0_E4typeEEEOS4_OS7_, symObjAddr: 0x2B91C, symBinAddr: 0x100037B3C, symSize: 0x20C }
  - { offsetInCU: 0xC1DE, offset: 0x22052, size: 0x8, addend: 0x0, symName: __ZNSt3__114__rewrap_rangeB7v160006IPfS1_EET_S2_T0_, symObjAddr: 0x2BB28, symBinAddr: 0x100037D48, symSize: 0x2C }
  - { offsetInCU: 0xC22A, offset: 0x2209E, size: 0x8, addend: 0x0, symName: __ZNSt3__113__rewrap_iterB7v160006IPfS1_NS_18__unwrap_iter_implIS1_Lb1EEEEET_S4_T0_, symObjAddr: 0x2BB54, symBinAddr: 0x100037D74, symSize: 0x5C }
  - { offsetInCU: 0xC27F, offset: 0x220F3, size: 0x8, addend: 0x0, symName: __ZNSt3__128__copy_backward_trivial_implB7v160006IffEENS_4pairIPT_PT0_EES3_S3_S5_, symObjAddr: 0x2BBB0, symBinAddr: 0x100037DD0, symSize: 0x3E0 }
  - { offsetInCU: 0xC2F2, offset: 0x22166, size: 0x8, addend: 0x0, symName: __ZNSt3__19make_pairB7v160006IRPfS2_EENS_4pairINS_18__unwrap_ref_decayIT_E4typeENS4_IT0_E4typeEEEOS5_OS8_, symObjAddr: 0x2BF90, symBinAddr: 0x1000381B0, symSize: 0x20C }
  - { offsetInCU: 0xC396, offset: 0x2220A, size: 0x8, addend: 0x0, symName: __ZNSt3__14moveB7v160006IPfS1_EET0_T_S3_S2_, symObjAddr: 0x2C384, symBinAddr: 0x1000385A4, symSize: 0x254 }
  - { offsetInCU: 0xC3F3, offset: 0x22267, size: 0x8, addend: 0x0, symName: __ZNSt3__16__moveB7v160006INS_17_ClassicAlgPolicyEPfS2_S2_EENS_4pairIT0_T2_EES4_T1_S5_, symObjAddr: 0x2CC20, symBinAddr: 0x100038E40, symSize: 0x22C }
  - { offsetInCU: 0xC462, offset: 0x222D6, size: 0x8, addend: 0x0, symName: __ZNSt3__123__dispatch_copy_or_moveB7v160006INS_17_ClassicAlgPolicyENS_11__move_loopIS1_EENS_14__move_trivialEPfS5_S5_EENS_4pairIT2_T4_EES7_T3_S8_, symObjAddr: 0x2CE4C, symBinAddr: 0x10003906C, symSize: 0x23C }
  - { offsetInCU: 0xC4E3, offset: 0x22357, size: 0x8, addend: 0x0, symName: __ZNSt3__121__unwrap_and_dispatchB7v160006INS_10__overloadINS_11__move_loopINS_17_ClassicAlgPolicyEEENS_14__move_trivialEEEPfS7_S7_Li0EEENS_4pairIT0_T2_EES9_T1_SA_, symObjAddr: 0x2D088, symBinAddr: 0x1000392A8, symSize: 0x5A4 }
  - { offsetInCU: 0xC5C6, offset: 0x2243A, size: 0x8, addend: 0x0, symName: __ZNSt3__119__copy_trivial_implB7v160006IffEENS_4pairIPT_PT0_EES3_S3_S5_, symObjAddr: 0x2D85C, symBinAddr: 0x100039A7C, symSize: 0x3B8 }
  - { offsetInCU: 0xC636, offset: 0x224AA, size: 0x8, addend: 0x0, symName: __ZNSt3__19make_pairB7v160006IRPfS1_EENS_4pairINS_18__unwrap_ref_decayIT_E4typeENS4_IT0_E4typeEEEOS5_OS8_, symObjAddr: 0x2DC14, symBinAddr: 0x100039E34, symSize: 0x20C }
  - { offsetInCU: 0xC687, offset: 0x224FB, size: 0x8, addend: 0x0, symName: __ZNSt3__18distanceB7v160006INS_13move_iteratorIPfEEEENS_15iterator_traitsIT_E15difference_typeES5_S5_, symObjAddr: 0x2DE20, symBinAddr: 0x10003A040, symSize: 0x350 }
  - { offsetInCU: 0xC6D2, offset: 0x22546, size: 0x8, addend: 0x0, symName: __ZNSt3__110__distanceB7v160006INS_13move_iteratorIPfEEEENS_15iterator_traitsIT_E15difference_typeES5_S5_NS_26random_access_iterator_tagE, symObjAddr: 0x2E238, symBinAddr: 0x10003A458, symSize: 0x274 }
  - { offsetInCU: 0xC729, offset: 0x2259D, size: 0x8, addend: 0x0, symName: __ZNSt3__1miB7v160006IPfS1_EENS_13move_iteratorIT_E15difference_typeERKS4_RKNS2_IT0_EE, symObjAddr: 0x2E4AC, symBinAddr: 0x10003A6CC, symSize: 0x48 }
  - { offsetInCU: 0xC778, offset: 0x225EC, size: 0x8, addend: 0x0, symName: __ZNSt3__142__uninitialized_allocator_move_if_noexceptB7v160006INS_9allocatorIfEEPfS3_fvEET1_RT_T0_S7_S4_, symObjAddr: 0x2E5C4, symBinAddr: 0x10003A7E4, symSize: 0xA4 }
  - { offsetInCU: 0xC7F5, offset: 0x22669, size: 0x8, addend: 0x0, symName: __ZNSt3__120__throw_bad_weak_ptrB7v160006Ev, symObjAddr: 0x2E958, symBinAddr: 0x10003AB78, symSize: 0x4C }
  - { offsetInCU: 0xC878, offset: 0x226EC, size: 0x8, addend: 0x0, symName: __ZNSt3__115allocate_sharedB7v160006I10BPTreeNodeNS_9allocatorIS1_EEJbEvEENS_10shared_ptrIT_EERKT0_DpOT1_, symObjAddr: 0x2EC04, symBinAddr: 0x10003AE24, symSize: 0x300 }
  - { offsetInCU: 0xD4EF, offset: 0x23363, size: 0x8, addend: 0x0, symName: __ZNSt3__16vectorIfNS_9allocatorIfEEE26__swap_out_circular_bufferERNS_14__split_bufferIfRS2_EE, symObjAddr: 0x8D84, symBinAddr: 0x100017308, symSize: 0x574 }
  - { offsetInCU: 0xD548, offset: 0x233BC, size: 0x8, addend: 0x0, symName: __ZNSt3__16vectorIjNS_9allocatorIjEEE26__swap_out_circular_bufferERNS_14__split_bufferIjRS2_EE, symObjAddr: 0xFB54, symBinAddr: 0x10001E038, symSize: 0x574 }
  - { offsetInCU: 0xD648, offset: 0x234BC, size: 0x8, addend: 0x0, symName: __ZNSt3__110shared_ptrI10BPTreeNodeE18__enable_weak_thisB7v160006IS1_S1_vEEvPKNS_23enable_shared_from_thisIT_EEPT0_, symObjAddr: 0x19130, symBinAddr: 0x100025350, symSize: 0x260 }
  - { offsetInCU: 0xD6AE, offset: 0x23522, size: 0x8, addend: 0x0, symName: __ZNSt3__16vectorINS_10shared_ptrI10BPTreeNodeEENS_9allocatorIS3_EEE26__swap_out_circular_bufferERNS_14__split_bufferIS3_RS5_EE, symObjAddr: 0x1B250, symBinAddr: 0x100027470, symSize: 0x574 }
  - { offsetInCU: 0xD757, offset: 0x235CB, size: 0x8, addend: 0x0, symName: __ZNSt3__16vectorINS_10shared_ptrI10BPTreeNodeEENS_9allocatorIS3_EEE26__swap_out_circular_bufferERNS_14__split_bufferIS3_RS5_EEPS3_, symObjAddr: 0x22CA8, symBinAddr: 0x10002EEC8, symSize: 0x680 }
  - { offsetInCU: 0xD7FD, offset: 0x23671, size: 0x8, addend: 0x0, symName: __ZNSt3__16vectorIfNS_9allocatorIfEEE26__swap_out_circular_bufferERNS_14__split_bufferIfRS2_EEPf, symObjAddr: 0x29EA0, symBinAddr: 0x1000360C0, symSize: 0x680 }
  - { offsetInCU: 0xF3F1, offset: 0x25265, size: 0x8, addend: 0x0, symName: __ZN10BPTreeNodeC2Eb, symObjAddr: 0x0, symBinAddr: 0x10000E610, symSize: 0x16C }
  - { offsetInCU: 0xF42B, offset: 0x2529F, size: 0x8, addend: 0x0, symName: __ZNSt3__123enable_shared_from_thisI10BPTreeNodeEC2B7v160006Ev, symObjAddr: 0x16C, symBinAddr: 0x10000E77C, symSize: 0x2C }
  - { offsetInCU: 0xF455, offset: 0x252C9, size: 0x8, addend: 0x0, symName: __ZNSt3__16vectorIfNS_9allocatorIfEEEC1B7v160006Ev, symObjAddr: 0x198, symBinAddr: 0x10000E7A8, symSize: 0x2C }
  - { offsetInCU: 0xF47F, offset: 0x252F3, size: 0x8, addend: 0x0, symName: __ZNSt3__16vectorINS_10shared_ptrI10BPTreeNodeEENS_9allocatorIS3_EEEC1B7v160006Ev, symObjAddr: 0x1C4, symBinAddr: 0x10000E7D4, symSize: 0x2C }
  - { offsetInCU: 0xF4A9, offset: 0x2531D, size: 0x8, addend: 0x0, symName: __ZNSt3__16vectorIjNS_9allocatorIjEEEC1B7v160006Ev, symObjAddr: 0x1F0, symBinAddr: 0x10000E800, symSize: 0x2C }
  - { offsetInCU: 0xF4D3, offset: 0x25347, size: 0x8, addend: 0x0, symName: __ZNSt3__16vectorINS_10shared_ptrI10BPTreeNodeEENS_9allocatorIS3_EEED1B7v160006Ev, symObjAddr: 0x21C, symBinAddr: 0x10000E82C, symSize: 0x2C }
  - { offsetInCU: 0xF4FD, offset: 0x25371, size: 0x8, addend: 0x0, symName: __ZNSt3__16vectorIfNS_9allocatorIfEEED1B7v160006Ev, symObjAddr: 0x254, symBinAddr: 0x10000E858, symSize: 0x2C }
  - { offsetInCU: 0xF527, offset: 0x2539B, size: 0x8, addend: 0x0, symName: __ZNSt3__123enable_shared_from_thisI10BPTreeNodeED2B7v160006Ev, symObjAddr: 0x280, symBinAddr: 0x10000E884, symSize: 0x2C }
  - { offsetInCU: 0xF551, offset: 0x253C5, size: 0x8, addend: 0x0, symName: __ZN10BPTreeNodeC1Eb, symObjAddr: 0x2AC, symBinAddr: 0x10000E8B0, symSize: 0x40 }
  - { offsetInCU: 0xF58B, offset: 0x253FF, size: 0x8, addend: 0x0, symName: __ZN10BPTreeNode13insertNonFullEfjR4Disk, symObjAddr: 0x2EC, symBinAddr: 0x10000E8F0, symSize: 0x958 }
  - { offsetInCU: 0xF5F7, offset: 0x2546B, size: 0x8, addend: 0x0, symName: __ZNKSt3__16vectorIfNS_9allocatorIfEEE4sizeB7v160006Ev, symObjAddr: 0xC44, symBinAddr: 0x10000F248, symSize: 0xB0 }
  - { offsetInCU: 0xF61D, offset: 0x25491, size: 0x8, addend: 0x0, symName: __ZNSt3__16vectorIfNS_9allocatorIfEEE9push_backB7v160006ERKf, symObjAddr: 0xCF4, symBinAddr: 0x10000F2F8, symSize: 0xE0 }
  - { offsetInCU: 0xF654, offset: 0x254C8, size: 0x8, addend: 0x0, symName: __ZNSt3__16vectorIjNS_9allocatorIjEEE9push_backB7v160006ERKj, symObjAddr: 0xDD4, symBinAddr: 0x10000F3D8, symSize: 0xE0 }
  - { offsetInCU: 0xF68B, offset: 0x254FF, size: 0x8, addend: 0x0, symName: __ZNSt3__16vectorIfNS_9allocatorIfEEEixB7v160006Em, symObjAddr: 0xEB4, symBinAddr: 0x10000F4B8, symSize: 0x6C }
  - { offsetInCU: 0xF6C2, offset: 0x25536, size: 0x8, addend: 0x0, symName: __ZNSt3__16vectorIjNS_9allocatorIjEEEixB7v160006Em, symObjAddr: 0x12C8, symBinAddr: 0x10000F8CC, symSize: 0x6C }
  - { offsetInCU: 0xF6F9, offset: 0x2556D, size: 0x8, addend: 0x0, symName: __ZNSt3__16vectorINS_10shared_ptrI10BPTreeNodeEENS_9allocatorIS3_EEEixB7v160006Em, symObjAddr: 0x1334, symBinAddr: 0x10000F938, symSize: 0x6C }
  - { offsetInCU: 0xF730, offset: 0x255A4, size: 0x8, addend: 0x0, symName: __ZNKSt3__110shared_ptrI10BPTreeNodeEptB7v160006Ev, symObjAddr: 0x13A0, symBinAddr: 0x10000F9A4, symSize: 0x60 }
  - { offsetInCU: 0xF756, offset: 0x255CA, size: 0x8, addend: 0x0, symName: __ZN10BPTreeNode10splitChildEiNSt3__110shared_ptrIS_EER4Disk, symObjAddr: 0x1448, symBinAddr: 0x10000FA04, symSize: 0xC94 }
  - { offsetInCU: 0xF83D, offset: 0x256B1, size: 0x8, addend: 0x0, symName: __ZNSt3__110shared_ptrI10BPTreeNodeEC1B7v160006ERKS2_, symObjAddr: 0x20DC, symBinAddr: 0x100010698, symSize: 0x34 }
  - { offsetInCU: 0xF876, offset: 0x256EA, size: 0x8, addend: 0x0, symName: __ZNKSt3__16vectorINS_10shared_ptrI10BPTreeNodeEENS_9allocatorIS3_EEE4sizeB7v160006Ev, symObjAddr: 0x2324, symBinAddr: 0x1000108B4, symSize: 0xB0 }
  - { offsetInCU: 0xF89C, offset: 0x25710, size: 0x8, addend: 0x0, symName: __ZNSt3__16vectorINS_10shared_ptrI10BPTreeNodeEENS_9allocatorIS3_EEE9push_backB7v160006ERKS3_, symObjAddr: 0x23D4, symBinAddr: 0x100010964, symSize: 0xE0 }
  - { offsetInCU: 0xF8D3, offset: 0x25747, size: 0x8, addend: 0x0, symName: __ZNKSt3__16vectorIjNS_9allocatorIjEEE4sizeB7v160006Ev, symObjAddr: 0x24B4, symBinAddr: 0x100010A44, symSize: 0xB0 }
  - { offsetInCU: 0xF8F9, offset: 0x2576D, size: 0x8, addend: 0x0, symName: __ZNSt3__16vectorIfNS_9allocatorIfEEE6resizeEm, symObjAddr: 0x2564, symBinAddr: 0x100010AF4, symSize: 0xD4 }
  - { offsetInCU: 0xF93F, offset: 0x257B3, size: 0x8, addend: 0x0, symName: __ZNSt3__16vectorINS_10shared_ptrI10BPTreeNodeEENS_9allocatorIS3_EEE6resizeEm, symObjAddr: 0x2638, symBinAddr: 0x100010BC8, symSize: 0xD4 }
  - { offsetInCU: 0xF985, offset: 0x257F9, size: 0x8, addend: 0x0, symName: __ZNSt3__16vectorIjNS_9allocatorIjEEE6resizeEm, symObjAddr: 0x270C, symBinAddr: 0x100010C9C, symSize: 0xD4 }
  - { offsetInCU: 0xF9CB, offset: 0x2583F, size: 0x8, addend: 0x0, symName: __ZNSt3__16vectorINS_10shared_ptrI10BPTreeNodeEENS_9allocatorIS3_EEE6insertENS_11__wrap_iterIPKS3_EERS8_, symObjAddr: 0x27E0, symBinAddr: 0x100010D70, symSize: 0x7B4 }
  - { offsetInCU: 0xFA6F, offset: 0x258E3, size: 0x8, addend: 0x0, symName: __ZNSt3__16vectorINS_10shared_ptrI10BPTreeNodeEENS_9allocatorIS3_EEE5beginB7v160006Ev, symObjAddr: 0x2F94, symBinAddr: 0x100011524, symSize: 0x268 }
  - { offsetInCU: 0xFA98, offset: 0x2590C, size: 0x8, addend: 0x0, symName: __ZNKSt3__111__wrap_iterIPNS_10shared_ptrI10BPTreeNodeEEEplB7v160006El, symObjAddr: 0x31FC, symBinAddr: 0x10001178C, symSize: 0x20C }
  - { offsetInCU: 0xFAEB, offset: 0x2595F, size: 0x8, addend: 0x0, symName: __ZNSt3__111__wrap_iterIPKNS_10shared_ptrI10BPTreeNodeEEEC1B7v160006IPS3_EERKNS0_IT_EEPNS_9enable_ifIXsr14is_convertibleIS9_S5_EE5valueEvE4typeE, symObjAddr: 0x3408, symBinAddr: 0x100011998, symSize: 0x3C }
  - { offsetInCU: 0xFB37, offset: 0x259AB, size: 0x8, addend: 0x0, symName: __ZNSt3__16vectorIfNS_9allocatorIfEEE6insertENS_11__wrap_iterIPKfEERS5_, symObjAddr: 0x3444, symBinAddr: 0x1000119D4, symSize: 0x878 }
  - { offsetInCU: 0xFBDB, offset: 0x25A4F, size: 0x8, addend: 0x0, symName: __ZNSt3__16vectorIfNS_9allocatorIfEEE5beginB7v160006Ev, symObjAddr: 0x3CBC, symBinAddr: 0x10001224C, symSize: 0x268 }
  - { offsetInCU: 0xFC04, offset: 0x25A78, size: 0x8, addend: 0x0, symName: __ZNKSt3__111__wrap_iterIPfEplB7v160006El, symObjAddr: 0x3F24, symBinAddr: 0x1000124B4, symSize: 0x20C }
  - { offsetInCU: 0xFC52, offset: 0x25AC6, size: 0x8, addend: 0x0, symName: __ZNSt3__111__wrap_iterIPKfEC1B7v160006IPfEERKNS0_IT_EEPNS_9enable_ifIXsr14is_convertibleIS6_S2_EE5valueEvE4typeE, symObjAddr: 0x4130, symBinAddr: 0x1000126C0, symSize: 0x3C }
  - { offsetInCU: 0xFC9E, offset: 0x25B12, size: 0x8, addend: 0x0, symName: __ZN10BPTreeNode8traverseER4Disk, symObjAddr: 0x416C, symBinAddr: 0x1000126FC, symSize: 0x21C }
  - { offsetInCU: 0xFCE3, offset: 0x25B57, size: 0x8, addend: 0x0, symName: __ZN10BPTreeNode6searchEfR4Disk, symObjAddr: 0x4388, symBinAddr: 0x100012918, symSize: 0x298 }
  - { offsetInCU: 0xFD36, offset: 0x25BAA, size: 0x8, addend: 0x0, symName: __ZNSt3__123enable_shared_from_thisI10BPTreeNodeE16shared_from_thisB7v160006Ev, symObjAddr: 0x4620, symBinAddr: 0x100012BB0, symSize: 0x38 }
  - { offsetInCU: 0xFD5C, offset: 0x25BD0, size: 0x8, addend: 0x0, symName: __ZNSt3__110shared_ptrI10BPTreeNodeEC1B7v160006EDn, symObjAddr: 0x4658, symBinAddr: 0x100012BE8, symSize: 0x34 }
  - { offsetInCU: 0xFDF4, offset: 0x25C68, size: 0x8, addend: 0x0, symName: __ZN6BPTreeC2Ev, symObjAddr: 0x468C, symBinAddr: 0x100012C1C, symSize: 0x36C }
  - { offsetInCU: 0xFE21, offset: 0x25C95, size: 0x8, addend: 0x0, symName: __ZNSt3__110shared_ptrI10BPTreeNodeEC1B7v160006Ev, symObjAddr: 0x49F8, symBinAddr: 0x100012F88, symSize: 0x2C }
  - { offsetInCU: 0xFE4B, offset: 0x25CBF, size: 0x8, addend: 0x0, symName: __ZNSt3__110shared_ptrI10BPTreeNodeEaSB7v160006EOS2_, symObjAddr: 0x4C0C, symBinAddr: 0x10001319C, symSize: 0x22C }
  - { offsetInCU: 0xFE82, offset: 0x25CF6, size: 0x8, addend: 0x0, symName: __ZN6BPTreeC1Ev, symObjAddr: 0x4E38, symBinAddr: 0x1000133C8, symSize: 0x2C }
  - { offsetInCU: 0xFEAE, offset: 0x25D22, size: 0x8, addend: 0x0, symName: __ZN6BPTree6insertEfjR4Disk, symObjAddr: 0x4E64, symBinAddr: 0x1000133F4, symSize: 0x4F8 }
  - { offsetInCU: 0xFF2D, offset: 0x25DA1, size: 0x8, addend: 0x0, symName: __ZNSt3__110shared_ptrI10BPTreeNodeEaSB7v160006ERKS2_, symObjAddr: 0x535C, symBinAddr: 0x1000138EC, symSize: 0x22C }
  - { offsetInCU: 0xFF64, offset: 0x25DD8, size: 0x8, addend: 0x0, symName: __ZN6BPTree8traverseER4Disk, symObjAddr: 0x5588, symBinAddr: 0x100013B18, symSize: 0x4C }
  - { offsetInCU: 0xFF9A, offset: 0x25E0E, size: 0x8, addend: 0x0, symName: __ZNSt3__18weak_ptrI10BPTreeNodeEC1Ev, symObjAddr: 0x5600, symBinAddr: 0x100013B90, symSize: 0x2C }
  - { offsetInCU: 0xFFC6, offset: 0x25E3A, size: 0x8, addend: 0x0, symName: __ZNSt3__18weak_ptrI10BPTreeNodeEC2Ev, symObjAddr: 0x562C, symBinAddr: 0x100013BBC, symSize: 0x9C }
  - { offsetInCU: 0xFFF2, offset: 0x25E66, size: 0x8, addend: 0x0, symName: __ZNSt3__16vectorIfNS_9allocatorIfEEEC2B7v160006Ev, symObjAddr: 0x56C8, symBinAddr: 0x100013C58, symSize: 0x2DC }
  - { offsetInCU: 0x10027, offset: 0x25E9B, size: 0x8, addend: 0x0, symName: __ZNSt3__117__compressed_pairIPfNS_9allocatorIfEEEC1B7v160006IDnNS_18__default_init_tagEEEOT_OT0_, symObjAddr: 0x59A4, symBinAddr: 0x100013F34, symSize: 0x3C }
  - { offsetInCU: 0x1007F, offset: 0x25EF3, size: 0x8, addend: 0x0, symName: __ZNSt3__117__compressed_pairIPfNS_9allocatorIfEEEC2B7v160006IDnNS_18__default_init_tagEEEOT_OT0_, symObjAddr: 0x59F0, symBinAddr: 0x100013F80, symSize: 0x40 }
  - { offsetInCU: 0x100D7, offset: 0x25F4B, size: 0x8, addend: 0x0, symName: __ZNSt3__122__compressed_pair_elemIPfLi0ELb0EEC2B7v160006IDnvEEOT_, symObjAddr: 0x5A30, symBinAddr: 0x100013FC0, symSize: 0x64 }
  - { offsetInCU: 0x10119, offset: 0x25F8D, size: 0x8, addend: 0x0, symName: __ZNSt3__122__compressed_pair_elemINS_9allocatorIfEELi1ELb1EEC2B7v160006ENS_18__default_init_tagE, symObjAddr: 0x5A94, symBinAddr: 0x100014024, symSize: 0x2C }
  - { offsetInCU: 0x1014E, offset: 0x25FC2, size: 0x8, addend: 0x0, symName: __ZNSt3__19allocatorIfEC2B7v160006Ev, symObjAddr: 0x5AC0, symBinAddr: 0x100014050, symSize: 0x2C }
  - { offsetInCU: 0x10178, offset: 0x25FEC, size: 0x8, addend: 0x0, symName: __ZNSt3__116__non_trivial_ifILb1ENS_9allocatorIfEEEC2B7v160006Ev, symObjAddr: 0x5AEC, symBinAddr: 0x10001407C, symSize: 0x14 }
  - { offsetInCU: 0x101A2, offset: 0x26016, size: 0x8, addend: 0x0, symName: __ZNSt3__16vectorINS_10shared_ptrI10BPTreeNodeEENS_9allocatorIS3_EEEC2B7v160006Ev, symObjAddr: 0x5B00, symBinAddr: 0x100014090, symSize: 0x2DC }
  - { offsetInCU: 0x101CD, offset: 0x26041, size: 0x8, addend: 0x0, symName: __ZNSt3__117__compressed_pairIPNS_10shared_ptrI10BPTreeNodeEENS_9allocatorIS3_EEEC1B7v160006IDnNS_18__default_init_tagEEEOT_OT0_, symObjAddr: 0x5DDC, symBinAddr: 0x10001436C, symSize: 0x3C }
  - { offsetInCU: 0x10225, offset: 0x26099, size: 0x8, addend: 0x0, symName: __ZNSt3__117__compressed_pairIPNS_10shared_ptrI10BPTreeNodeEENS_9allocatorIS3_EEEC2B7v160006IDnNS_18__default_init_tagEEEOT_OT0_, symObjAddr: 0x5E28, symBinAddr: 0x1000143B8, symSize: 0x40 }
  - { offsetInCU: 0x1027D, offset: 0x260F1, size: 0x8, addend: 0x0, symName: __ZNSt3__122__compressed_pair_elemIPNS_10shared_ptrI10BPTreeNodeEELi0ELb0EEC2B7v160006IDnvEEOT_, symObjAddr: 0x5E68, symBinAddr: 0x1000143F8, symSize: 0x64 }
  - { offsetInCU: 0x102BF, offset: 0x26133, size: 0x8, addend: 0x0, symName: __ZNSt3__122__compressed_pair_elemINS_9allocatorINS_10shared_ptrI10BPTreeNodeEEEELi1ELb1EEC2B7v160006ENS_18__default_init_tagE, symObjAddr: 0x5ECC, symBinAddr: 0x10001445C, symSize: 0x2C }
  - { offsetInCU: 0x102F4, offset: 0x26168, size: 0x8, addend: 0x0, symName: __ZNSt3__19allocatorINS_10shared_ptrI10BPTreeNodeEEEC2B7v160006Ev, symObjAddr: 0x5EF8, symBinAddr: 0x100014488, symSize: 0x2C }
  - { offsetInCU: 0x1031E, offset: 0x26192, size: 0x8, addend: 0x0, symName: __ZNSt3__116__non_trivial_ifILb1ENS_9allocatorINS_10shared_ptrI10BPTreeNodeEEEEEC2B7v160006Ev, symObjAddr: 0x5F24, symBinAddr: 0x1000144B4, symSize: 0x14 }
  - { offsetInCU: 0x10348, offset: 0x261BC, size: 0x8, addend: 0x0, symName: __ZNSt3__16vectorIjNS_9allocatorIjEEEC2B7v160006Ev, symObjAddr: 0x5F38, symBinAddr: 0x1000144C8, symSize: 0x2DC }
  - { offsetInCU: 0x10373, offset: 0x261E7, size: 0x8, addend: 0x0, symName: __ZNSt3__117__compressed_pairIPjNS_9allocatorIjEEEC1B7v160006IDnNS_18__default_init_tagEEEOT_OT0_, symObjAddr: 0x6214, symBinAddr: 0x1000147A4, symSize: 0x3C }
  - { offsetInCU: 0x103CB, offset: 0x2623F, size: 0x8, addend: 0x0, symName: __ZNSt3__117__compressed_pairIPjNS_9allocatorIjEEEC2B7v160006IDnNS_18__default_init_tagEEEOT_OT0_, symObjAddr: 0x6260, symBinAddr: 0x1000147F0, symSize: 0x40 }
  - { offsetInCU: 0x10423, offset: 0x26297, size: 0x8, addend: 0x0, symName: __ZNSt3__122__compressed_pair_elemIPjLi0ELb0EEC2B7v160006IDnvEEOT_, symObjAddr: 0x62A0, symBinAddr: 0x100014830, symSize: 0x64 }
  - { offsetInCU: 0x10465, offset: 0x262D9, size: 0x8, addend: 0x0, symName: __ZNSt3__122__compressed_pair_elemINS_9allocatorIjEELi1ELb1EEC2B7v160006ENS_18__default_init_tagE, symObjAddr: 0x6304, symBinAddr: 0x100014894, symSize: 0x2C }
  - { offsetInCU: 0x1049A, offset: 0x2630E, size: 0x8, addend: 0x0, symName: __ZNSt3__19allocatorIjEC2B7v160006Ev, symObjAddr: 0x6330, symBinAddr: 0x1000148C0, symSize: 0x2C }
  - { offsetInCU: 0x104C4, offset: 0x26338, size: 0x8, addend: 0x0, symName: __ZNSt3__116__non_trivial_ifILb1ENS_9allocatorIjEEEC2B7v160006Ev, symObjAddr: 0x635C, symBinAddr: 0x1000148EC, symSize: 0x14 }
  - { offsetInCU: 0x104EE, offset: 0x26362, size: 0x8, addend: 0x0, symName: __ZNSt3__16vectorIfNS_9allocatorIfEEED2B7v160006Ev, symObjAddr: 0x6370, symBinAddr: 0x100014900, symSize: 0x1E0 }
  - { offsetInCU: 0x10519, offset: 0x2638D, size: 0x8, addend: 0x0, symName: __ZNSt3__16vectorIfNS_9allocatorIfEEE16__destroy_vectorC1ERS3_, symObjAddr: 0x6550, symBinAddr: 0x100014AE0, symSize: 0x34 }
  - { offsetInCU: 0x10552, offset: 0x263C6, size: 0x8, addend: 0x0, symName: __ZNSt3__16vectorIfNS_9allocatorIfEEE16__destroy_vectorclB7v160006Ev, symObjAddr: 0x6584, symBinAddr: 0x100014B14, symSize: 0x264 }
  - { offsetInCU: 0x10578, offset: 0x263EC, size: 0x8, addend: 0x0, symName: __ZNSt3__16vectorIfNS_9allocatorIfEEE16__destroy_vectorC2ERS3_, symObjAddr: 0x67E8, symBinAddr: 0x100014D78, symSize: 0x70 }
  - { offsetInCU: 0x105B1, offset: 0x26425, size: 0x8, addend: 0x0, symName: __ZNKSt3__16vectorIfNS_9allocatorIfEEE17__annotate_deleteB7v160006Ev, symObjAddr: 0x6858, symBinAddr: 0x100014DE8, symSize: 0xE0 }
  - { offsetInCU: 0x105D7, offset: 0x2644B, size: 0x8, addend: 0x0, symName: __ZNSt3__16vectorIfNS_9allocatorIfEEE7__clearB7v160006Ev, symObjAddr: 0x6948, symBinAddr: 0x100014ED8, symSize: 0x64 }
  - { offsetInCU: 0x105FD, offset: 0x26471, size: 0x8, addend: 0x0, symName: __ZNSt3__116allocator_traitsINS_9allocatorIfEEE10deallocateB7v160006ERS2_Pfm, symObjAddr: 0x69AC, symBinAddr: 0x100014F3C, symSize: 0x34 }
  - { offsetInCU: 0x1063F, offset: 0x264B3, size: 0x8, addend: 0x0, symName: __ZNSt3__16vectorIfNS_9allocatorIfEEE7__allocB7v160006Ev, symObjAddr: 0x69E0, symBinAddr: 0x100014F70, symSize: 0x28 }
  - { offsetInCU: 0x10665, offset: 0x264D9, size: 0x8, addend: 0x0, symName: __ZNKSt3__16vectorIfNS_9allocatorIfEEE8capacityB7v160006Ev, symObjAddr: 0x6A08, symBinAddr: 0x100014F98, symSize: 0xBC }
  - { offsetInCU: 0x1068B, offset: 0x264FF, size: 0x8, addend: 0x0, symName: __ZNKSt3__16vectorIfNS_9allocatorIfEEE31__annotate_contiguous_containerEPKvS5_S5_S5_, symObjAddr: 0x6AC4, symBinAddr: 0x100015054, symSize: 0x64 }
  - { offsetInCU: 0x106ED, offset: 0x26561, size: 0x8, addend: 0x0, symName: __ZNKSt3__16vectorIfNS_9allocatorIfEEE4dataB7v160006Ev, symObjAddr: 0x6B28, symBinAddr: 0x1000150B8, symSize: 0x64 }
  - { offsetInCU: 0x10713, offset: 0x26587, size: 0x8, addend: 0x0, symName: __ZNSt3__16vectorIfNS_9allocatorIfEEE22__base_destruct_at_endB7v160006EPf, symObjAddr: 0x6BAC, symBinAddr: 0x100015130, symSize: 0x128 }
  - { offsetInCU: 0x10757, offset: 0x265CB, size: 0x8, addend: 0x0, symName: __ZNSt3__116allocator_traitsINS_9allocatorIfEEE7destroyB7v160006IfvEEvRS2_PT_, symObjAddr: 0x6CD4, symBinAddr: 0x100015258, symSize: 0x2C }
  - { offsetInCU: 0x10794, offset: 0x26608, size: 0x8, addend: 0x0, symName: __ZNSt3__19allocatorIfE7destroyB7v160006EPf, symObjAddr: 0x6D00, symBinAddr: 0x100015284, symSize: 0x14 }
  - { offsetInCU: 0x107C8, offset: 0x2663C, size: 0x8, addend: 0x0, symName: __ZNSt3__19allocatorIfE10deallocateB7v160006EPfm, symObjAddr: 0x6D14, symBinAddr: 0x100015298, symSize: 0x7C }
  - { offsetInCU: 0x1080A, offset: 0x2667E, size: 0x8, addend: 0x0, symName: __ZNSt3__117__compressed_pairIPfNS_9allocatorIfEEE6secondB7v160006Ev, symObjAddr: 0x6E0C, symBinAddr: 0x100015390, symSize: 0x24 }
  - { offsetInCU: 0x10830, offset: 0x266A4, size: 0x8, addend: 0x0, symName: __ZNSt3__122__compressed_pair_elemINS_9allocatorIfEELi1ELb1EE5__getB7v160006Ev, symObjAddr: 0x6E30, symBinAddr: 0x1000153B4, symSize: 0x14 }
  - { offsetInCU: 0x10856, offset: 0x266CA, size: 0x8, addend: 0x0, symName: __ZNKSt3__16vectorIfNS_9allocatorIfEEE9__end_capB7v160006Ev, symObjAddr: 0x6E44, symBinAddr: 0x1000153C8, symSize: 0x28 }
  - { offsetInCU: 0x1087C, offset: 0x266F0, size: 0x8, addend: 0x0, symName: __ZNKSt3__117__compressed_pairIPfNS_9allocatorIfEEE5firstB7v160006Ev, symObjAddr: 0x6E6C, symBinAddr: 0x1000153F0, symSize: 0x24 }
  - { offsetInCU: 0x108A2, offset: 0x26716, size: 0x8, addend: 0x0, symName: __ZNKSt3__122__compressed_pair_elemIPfLi0ELb0EE5__getB7v160006Ev, symObjAddr: 0x6E90, symBinAddr: 0x100015414, symSize: 0x14 }
  - { offsetInCU: 0x108C8, offset: 0x2673C, size: 0x8, addend: 0x0, symName: __ZNSt3__16vectorINS_10shared_ptrI10BPTreeNodeEENS_9allocatorIS3_EEED2B7v160006Ev, symObjAddr: 0x6EA4, symBinAddr: 0x100015428, symSize: 0x1E0 }
  - { offsetInCU: 0x108F3, offset: 0x26767, size: 0x8, addend: 0x0, symName: __ZNSt3__16vectorINS_10shared_ptrI10BPTreeNodeEENS_9allocatorIS3_EEE16__destroy_vectorC1ERS6_, symObjAddr: 0x7084, symBinAddr: 0x100015608, symSize: 0x34 }
  - { offsetInCU: 0x1092C, offset: 0x267A0, size: 0x8, addend: 0x0, symName: __ZNSt3__16vectorINS_10shared_ptrI10BPTreeNodeEENS_9allocatorIS3_EEE16__destroy_vectorclB7v160006Ev, symObjAddr: 0x70B8, symBinAddr: 0x10001563C, symSize: 0x264 }
  - { offsetInCU: 0x10952, offset: 0x267C6, size: 0x8, addend: 0x0, symName: __ZNSt3__16vectorINS_10shared_ptrI10BPTreeNodeEENS_9allocatorIS3_EEE16__destroy_vectorC2ERS6_, symObjAddr: 0x731C, symBinAddr: 0x1000158A0, symSize: 0x70 }
  - { offsetInCU: 0x1098B, offset: 0x267FF, size: 0x8, addend: 0x0, symName: __ZNKSt3__16vectorINS_10shared_ptrI10BPTreeNodeEENS_9allocatorIS3_EEE17__annotate_deleteB7v160006Ev, symObjAddr: 0x738C, symBinAddr: 0x100015910, symSize: 0xE0 }
  - { offsetInCU: 0x109B1, offset: 0x26825, size: 0x8, addend: 0x0, symName: __ZNSt3__16vectorINS_10shared_ptrI10BPTreeNodeEENS_9allocatorIS3_EEE7__clearB7v160006Ev, symObjAddr: 0x747C, symBinAddr: 0x100015A00, symSize: 0x64 }
  - { offsetInCU: 0x109D7, offset: 0x2684B, size: 0x8, addend: 0x0, symName: __ZNSt3__116allocator_traitsINS_9allocatorINS_10shared_ptrI10BPTreeNodeEEEEE10deallocateB7v160006ERS5_PS4_m, symObjAddr: 0x74E0, symBinAddr: 0x100015A64, symSize: 0x34 }
  - { offsetInCU: 0x10A19, offset: 0x2688D, size: 0x8, addend: 0x0, symName: __ZNSt3__16vectorINS_10shared_ptrI10BPTreeNodeEENS_9allocatorIS3_EEE7__allocB7v160006Ev, symObjAddr: 0x7514, symBinAddr: 0x100015A98, symSize: 0x28 }
  - { offsetInCU: 0x10A3F, offset: 0x268B3, size: 0x8, addend: 0x0, symName: __ZNKSt3__16vectorINS_10shared_ptrI10BPTreeNodeEENS_9allocatorIS3_EEE8capacityB7v160006Ev, symObjAddr: 0x753C, symBinAddr: 0x100015AC0, symSize: 0xBC }
  - { offsetInCU: 0x10A65, offset: 0x268D9, size: 0x8, addend: 0x0, symName: __ZNKSt3__16vectorINS_10shared_ptrI10BPTreeNodeEENS_9allocatorIS3_EEE31__annotate_contiguous_containerEPKvS8_S8_S8_, symObjAddr: 0x75F8, symBinAddr: 0x100015B7C, symSize: 0x64 }
  - { offsetInCU: 0x10AC7, offset: 0x2693B, size: 0x8, addend: 0x0, symName: __ZNKSt3__16vectorINS_10shared_ptrI10BPTreeNodeEENS_9allocatorIS3_EEE4dataB7v160006Ev, symObjAddr: 0x765C, symBinAddr: 0x100015BE0, symSize: 0x64 }
  - { offsetInCU: 0x10AED, offset: 0x26961, size: 0x8, addend: 0x0, symName: __ZNSt3__16vectorINS_10shared_ptrI10BPTreeNodeEENS_9allocatorIS3_EEE22__base_destruct_at_endB7v160006EPS3_, symObjAddr: 0x76D4, symBinAddr: 0x100015C58, symSize: 0x128 }
  - { offsetInCU: 0x10B31, offset: 0x269A5, size: 0x8, addend: 0x0, symName: __ZNSt3__116allocator_traitsINS_9allocatorINS_10shared_ptrI10BPTreeNodeEEEEE7destroyB7v160006IS4_vEEvRS5_PT_, symObjAddr: 0x77FC, symBinAddr: 0x100015D80, symSize: 0x2C }
  - { offsetInCU: 0x10B6E, offset: 0x269E2, size: 0x8, addend: 0x0, symName: __ZNSt3__19allocatorINS_10shared_ptrI10BPTreeNodeEEE7destroyB7v160006EPS3_, symObjAddr: 0x7828, symBinAddr: 0x100015DAC, symSize: 0x28 }
  - { offsetInCU: 0x10BA2, offset: 0x26A16, size: 0x8, addend: 0x0, symName: __ZNSt3__19allocatorINS_10shared_ptrI10BPTreeNodeEEE10deallocateB7v160006EPS3_m, symObjAddr: 0x7850, symBinAddr: 0x100015DD4, symSize: 0x7C }
  - { offsetInCU: 0x10BE4, offset: 0x26A58, size: 0x8, addend: 0x0, symName: __ZNSt3__117__compressed_pairIPNS_10shared_ptrI10BPTreeNodeEENS_9allocatorIS3_EEE6secondB7v160006Ev, symObjAddr: 0x78CC, symBinAddr: 0x100015E50, symSize: 0x24 }
  - { offsetInCU: 0x10C0A, offset: 0x26A7E, size: 0x8, addend: 0x0, symName: __ZNSt3__122__compressed_pair_elemINS_9allocatorINS_10shared_ptrI10BPTreeNodeEEEELi1ELb1EE5__getB7v160006Ev, symObjAddr: 0x78F0, symBinAddr: 0x100015E74, symSize: 0x14 }
  - { offsetInCU: 0x10C30, offset: 0x26AA4, size: 0x8, addend: 0x0, symName: __ZNKSt3__16vectorINS_10shared_ptrI10BPTreeNodeEENS_9allocatorIS3_EEE9__end_capB7v160006Ev, symObjAddr: 0x7904, symBinAddr: 0x100015E88, symSize: 0x28 }
  - { offsetInCU: 0x10C56, offset: 0x26ACA, size: 0x8, addend: 0x0, symName: __ZNKSt3__117__compressed_pairIPNS_10shared_ptrI10BPTreeNodeEENS_9allocatorIS3_EEE5firstB7v160006Ev, symObjAddr: 0x792C, symBinAddr: 0x100015EB0, symSize: 0x24 }
  - { offsetInCU: 0x10C7C, offset: 0x26AF0, size: 0x8, addend: 0x0, symName: __ZNKSt3__122__compressed_pair_elemIPNS_10shared_ptrI10BPTreeNodeEELi0ELb0EE5__getB7v160006Ev, symObjAddr: 0x7950, symBinAddr: 0x100015ED4, symSize: 0x14 }
  - { offsetInCU: 0x10CA2, offset: 0x26B16, size: 0x8, addend: 0x0, symName: __ZNSt3__18weak_ptrI10BPTreeNodeED1Ev, symObjAddr: 0x7964, symBinAddr: 0x100015EE8, symSize: 0x2C }
  - { offsetInCU: 0x10CCE, offset: 0x26B42, size: 0x8, addend: 0x0, symName: __ZNSt3__18weak_ptrI10BPTreeNodeED2Ev, symObjAddr: 0x7990, symBinAddr: 0x100015F14, symSize: 0xC8 }
  - { offsetInCU: 0x10CFA, offset: 0x26B6E, size: 0x8, addend: 0x0, symName: __ZNSt3__16vectorIfNS_9allocatorIfEEE9__end_capB7v160006Ev, symObjAddr: 0x7A58, symBinAddr: 0x100015FDC, symSize: 0x28 }
  - { offsetInCU: 0x10D20, offset: 0x26B94, size: 0x8, addend: 0x0, symName: __ZNSt3__16vectorIfNS_9allocatorIfEEE22__construct_one_at_endB7v160006IJRKfEEEvDpOT_, symObjAddr: 0x7A80, symBinAddr: 0x100016004, symSize: 0x380 }
  - { offsetInCU: 0x10D75, offset: 0x26BE9, size: 0x8, addend: 0x0, symName: __ZNSt3__16vectorIfNS_9allocatorIfEEE21__push_back_slow_pathIRKfEEvOT_, symObjAddr: 0x7E00, symBinAddr: 0x100016384, symSize: 0x3D4 }
  - { offsetInCU: 0x10DDA, offset: 0x26C4E, size: 0x8, addend: 0x0, symName: __ZNSt3__117__compressed_pairIPfNS_9allocatorIfEEE5firstB7v160006Ev, symObjAddr: 0x81D4, symBinAddr: 0x100016758, symSize: 0x24 }
  - { offsetInCU: 0x10E00, offset: 0x26C74, size: 0x8, addend: 0x0, symName: __ZNSt3__122__compressed_pair_elemIPfLi0ELb0EE5__getB7v160006Ev, symObjAddr: 0x81F8, symBinAddr: 0x10001677C, symSize: 0x14 }
  - { offsetInCU: 0x10E3F, offset: 0x26CB3, size: 0x8, addend: 0x0, symName: __ZNSt3__16vectorIfNS_9allocatorIfEEE21_ConstructTransactionC1B7v160006ERS3_m, symObjAddr: 0x820C, symBinAddr: 0x100016790, symSize: 0x3C }
  - { offsetInCU: 0x10E87, offset: 0x26CFB, size: 0x8, addend: 0x0, symName: __ZNSt3__116allocator_traitsINS_9allocatorIfEEE9constructB7v160006IfJRKfEvEEvRS2_PT_DpOT0_, symObjAddr: 0x8248, symBinAddr: 0x1000167CC, symSize: 0x34 }
  - { offsetInCU: 0x10EDE, offset: 0x26D52, size: 0x8, addend: 0x0, symName: __ZNSt3__16vectorIfNS_9allocatorIfEEE21_ConstructTransactionD1B7v160006Ev, symObjAddr: 0x827C, symBinAddr: 0x100016800, symSize: 0x2C }
  - { offsetInCU: 0x10F08, offset: 0x26D7C, size: 0x8, addend: 0x0, symName: __ZNSt3__16vectorIfNS_9allocatorIfEEE21_ConstructTransactionC2B7v160006ERS3_m, symObjAddr: 0x82A8, symBinAddr: 0x10001682C, symSize: 0x1D0 }
  - { offsetInCU: 0x10F50, offset: 0x26DC4, size: 0x8, addend: 0x0, symName: __ZNKSt3__16vectorIfNS_9allocatorIfEEE19__annotate_increaseB7v160006Em, symObjAddr: 0x8478, symBinAddr: 0x1000169FC, symSize: 0xEC }
  - { offsetInCU: 0x10F85, offset: 0x26DF9, size: 0x8, addend: 0x0, symName: __ZNSt3__19allocatorIfE9constructB7v160006IfJRKfEEEvPT_DpOT0_, symObjAddr: 0x8564, symBinAddr: 0x100016AE8, symSize: 0x104 }
  - { offsetInCU: 0x10FDB, offset: 0x26E4F, size: 0x8, addend: 0x0, symName: __ZNSt3__16vectorIfNS_9allocatorIfEEE21_ConstructTransactionD2B7v160006Ev, symObjAddr: 0x8668, symBinAddr: 0x100016BEC, symSize: 0x278 }
  - { offsetInCU: 0x11005, offset: 0x26E79, size: 0x8, addend: 0x0, symName: __ZNKSt3__16vectorIfNS_9allocatorIfEEE17__annotate_shrinkB7v160006Em, symObjAddr: 0x88E0, symBinAddr: 0x100016E64, symSize: 0xDC }
  - { offsetInCU: 0x1103A, offset: 0x26EAE, size: 0x8, addend: 0x0, symName: __ZNKSt3__16vectorIfNS_9allocatorIfEEE11__recommendB7v160006Em, symObjAddr: 0x89BC, symBinAddr: 0x100016F40, symSize: 0x384 }
  - { offsetInCU: 0x11096, offset: 0x26F0A, size: 0x8, addend: 0x0, symName: __ZNSt3__114__split_bufferIfRNS_9allocatorIfEEEC1EmmS3_, symObjAddr: 0x8D40, symBinAddr: 0x1000172C4, symSize: 0x44 }
  - { offsetInCU: 0x110EC, offset: 0x26F60, size: 0x8, addend: 0x0, symName: __ZNSt3__114__split_bufferIfRNS_9allocatorIfEEED1Ev, symObjAddr: 0x92F8, symBinAddr: 0x10001787C, symSize: 0x2C }
  - { offsetInCU: 0x11118, offset: 0x26F8C, size: 0x8, addend: 0x0, symName: __ZNKSt3__16vectorIfNS_9allocatorIfEEE8max_sizeEv, symObjAddr: 0x9324, symBinAddr: 0x1000178A8, symSize: 0x328 }
  - { offsetInCU: 0x11141, offset: 0x26FB5, size: 0x8, addend: 0x0, symName: __ZNKSt3__16vectorIfNS_9allocatorIfEEE20__throw_length_errorB7v160006Ev, symObjAddr: 0x964C, symBinAddr: 0x100017BD0, symSize: 0x20 }
  - { offsetInCU: 0x11171, offset: 0x26FE5, size: 0x8, addend: 0x0, symName: __ZNSt3__116allocator_traitsINS_9allocatorIfEEE8max_sizeB7v160006IS2_vEEmRKS2_, symObjAddr: 0x96C4, symBinAddr: 0x100017C48, symSize: 0x24 }
  - { offsetInCU: 0x1119F, offset: 0x27013, size: 0x8, addend: 0x0, symName: __ZNKSt3__16vectorIfNS_9allocatorIfEEE7__allocB7v160006Ev, symObjAddr: 0x96E8, symBinAddr: 0x100017C6C, symSize: 0x28 }
  - { offsetInCU: 0x111D9, offset: 0x2704D, size: 0x8, addend: 0x0, symName: __ZNKSt3__16__lessImmEclB7v160006ERKmS3_, symObjAddr: 0x990C, symBinAddr: 0x100017E7C, symSize: 0xBC }
  - { offsetInCU: 0x1121B, offset: 0x2708F, size: 0x8, addend: 0x0, symName: __ZNKSt3__19allocatorIfE8max_sizeB7v160006Ev, symObjAddr: 0x99C8, symBinAddr: 0x100017F38, symSize: 0x14 }
  - { offsetInCU: 0x11241, offset: 0x270B5, size: 0x8, addend: 0x0, symName: __ZNKSt3__117__compressed_pairIPfNS_9allocatorIfEEE6secondB7v160006Ev, symObjAddr: 0x99DC, symBinAddr: 0x100017F4C, symSize: 0x24 }
  - { offsetInCU: 0x11267, offset: 0x270DB, size: 0x8, addend: 0x0, symName: __ZNKSt3__122__compressed_pair_elemINS_9allocatorIfEELi1ELb1EE5__getB7v160006Ev, symObjAddr: 0x9A00, symBinAddr: 0x100017F70, symSize: 0x14 }
  - { offsetInCU: 0x1128D, offset: 0x27101, size: 0x8, addend: 0x0, symName: __ZNSt12length_errorC1B7v160006EPKc, symObjAddr: 0x9A84, symBinAddr: 0x100017FEC, symSize: 0x34 }
  - { offsetInCU: 0x112C5, offset: 0x27139, size: 0x8, addend: 0x0, symName: __ZNSt12length_errorC2B7v160006EPKc, symObjAddr: 0x9AB8, symBinAddr: 0x100018020, symSize: 0x8C }
  - { offsetInCU: 0x112FD, offset: 0x27171, size: 0x8, addend: 0x0, symName: __ZNSt3__114__split_bufferIfRNS_9allocatorIfEEEC2EmmS3_, symObjAddr: 0x9D2C, symBinAddr: 0x100018294, symSize: 0x520 }
  - { offsetInCU: 0x11378, offset: 0x271EC, size: 0x8, addend: 0x0, symName: __ZNSt3__117__compressed_pairIPfRNS_9allocatorIfEEEC1B7v160006IDnS4_EEOT_OT0_, symObjAddr: 0xA24C, symBinAddr: 0x1000187B4, symSize: 0x3C }
  - { offsetInCU: 0x113D0, offset: 0x27244, size: 0x8, addend: 0x0, symName: __ZNSt3__114__split_bufferIfRNS_9allocatorIfEEE7__allocB7v160006Ev, symObjAddr: 0xA514, symBinAddr: 0x100018A7C, symSize: 0x28 }
  - { offsetInCU: 0x113F6, offset: 0x2726A, size: 0x8, addend: 0x0, symName: __ZNSt3__114__split_bufferIfRNS_9allocatorIfEEE9__end_capB7v160006Ev, symObjAddr: 0xA53C, symBinAddr: 0x100018AA4, symSize: 0x28 }
  - { offsetInCU: 0x1141C, offset: 0x27290, size: 0x8, addend: 0x0, symName: __ZNSt3__117__compressed_pairIPfRNS_9allocatorIfEEEC2B7v160006IDnS4_EEOT_OT0_, symObjAddr: 0xA564, symBinAddr: 0x100018ACC, symSize: 0x48 }
  - { offsetInCU: 0x11474, offset: 0x272E8, size: 0x8, addend: 0x0, symName: __ZNSt3__122__compressed_pair_elemIRNS_9allocatorIfEELi1ELb0EEC2B7v160006IS3_vEEOT_, symObjAddr: 0xA5AC, symBinAddr: 0x100018B14, symSize: 0x70 }
  - { offsetInCU: 0x114B6, offset: 0x2732A, size: 0x8, addend: 0x0, symName: __ZNSt3__19allocatorIfE8allocateB7v160006Em, symObjAddr: 0xA61C, symBinAddr: 0x100018B84, symSize: 0x88 }
  - { offsetInCU: 0x114EA, offset: 0x2735E, size: 0x8, addend: 0x0, symName: __ZNSt3__117__compressed_pairIPfRNS_9allocatorIfEEE6secondB7v160006Ev, symObjAddr: 0xA728, symBinAddr: 0x100018C0C, symSize: 0x28 }
  - { offsetInCU: 0x11510, offset: 0x27384, size: 0x8, addend: 0x0, symName: __ZNSt3__122__compressed_pair_elemIRNS_9allocatorIfEELi1ELb0EE5__getB7v160006Ev, symObjAddr: 0xA750, symBinAddr: 0x100018C34, symSize: 0x60 }
  - { offsetInCU: 0x11536, offset: 0x273AA, size: 0x8, addend: 0x0, symName: __ZNSt3__117__compressed_pairIPfRNS_9allocatorIfEEE5firstB7v160006Ev, symObjAddr: 0xA7B0, symBinAddr: 0x100018C94, symSize: 0x24 }
  - { offsetInCU: 0x1155C, offset: 0x273D0, size: 0x8, addend: 0x0, symName: __ZNSt3__116reverse_iteratorIPfEC1B7v160006ES1_, symObjAddr: 0xAD24, symBinAddr: 0x100019208, symSize: 0x34 }
  - { offsetInCU: 0x11594, offset: 0x27408, size: 0x8, addend: 0x0, symName: __ZNKSt3__116reverse_iteratorIPfE4baseB7v160006Ev, symObjAddr: 0xAD58, symBinAddr: 0x10001923C, symSize: 0x64 }
  - { offsetInCU: 0x115BA, offset: 0x2742E, size: 0x8, addend: 0x0, symName: __ZNKSt3__16vectorIfNS_9allocatorIfEEE14__annotate_newB7v160006Em, symObjAddr: 0xAEF0, symBinAddr: 0x1000193D4, symSize: 0xD4 }
  - { offsetInCU: 0x115EF, offset: 0x27463, size: 0x8, addend: 0x0, symName: __ZNKSt3__116reverse_iteratorIPfEdeB7v160006Ev, symObjAddr: 0xB148, symBinAddr: 0x10001962C, symSize: 0x74 }
  - { offsetInCU: 0x11624, offset: 0x27498, size: 0x8, addend: 0x0, symName: __ZNSt3__116reverse_iteratorIPfEppB7v160006Ev, symObjAddr: 0xB1BC, symBinAddr: 0x1000196A0, symSize: 0x6C }
  - { offsetInCU: 0x1164F, offset: 0x274C3, size: 0x8, addend: 0x0, symName: __ZNSt3__119__to_address_helperINS_16reverse_iteratorIPfEEvE6__callB7v160006ERKS3_, symObjAddr: 0xB6D8, symBinAddr: 0x100019BBC, symSize: 0x58 }
  - { offsetInCU: 0x11672, offset: 0x274E6, size: 0x8, addend: 0x0, symName: __ZNKSt3__116reverse_iteratorIPfEptB7v160006Ev, symObjAddr: 0xB730, symBinAddr: 0x100019C14, symSize: 0x24 }
  - { offsetInCU: 0x116BB, offset: 0x2752F, size: 0x8, addend: 0x0, symName: __ZNKSt3__111__move_loopINS_17_ClassicAlgPolicyEEclB7v160006INS_16reverse_iteratorIPfEES6_S6_EENS_4pairIT_T1_EES8_T0_S9_, symObjAddr: 0xCC74, symBinAddr: 0x10001B158, symSize: 0x3F8 }
  - { offsetInCU: 0x11733, offset: 0x275A7, size: 0x8, addend: 0x0, symName: __ZNSt3__18_IterOpsINS_17_ClassicAlgPolicyEE11__iter_moveB7v160006IRNS_16reverse_iteratorIPfEEEENS_9enable_ifIXsr12is_referenceIDTdeclsr3stdE7declvalIRT_EEEEE5valueEDTclsr3stdE4movedeclsr3stdE7declvalISA_EEEEE4typeEOS9_, symObjAddr: 0xDB60, symBinAddr: 0x10001C044, symSize: 0x28 }
  - { offsetInCU: 0x1175F, offset: 0x275D3, size: 0x8, addend: 0x0, symName: __ZNSt3__18_IterOpsINS_17_ClassicAlgPolicyEE25__validate_iter_referenceB7v160006IRNS_16reverse_iteratorIPfEEEEvv, symObjAddr: 0xDB88, symBinAddr: 0x10001C06C, symSize: 0x4 }
  - { offsetInCU: 0x1177D, offset: 0x275F1, size: 0x8, addend: 0x0, symName: __ZNSt3__118__unwrap_iter_implINS_16reverse_iteratorIPfEELb0EE8__unwrapB7v160006ES3_, symObjAddr: 0xDB8C, symBinAddr: 0x10001C070, symSize: 0x274 }
  - { offsetInCU: 0x117A4, offset: 0x27618, size: 0x8, addend: 0x0, symName: __ZNSt3__14pairINS_16reverse_iteratorIPfEES3_EC1B7v160006ERKS3_S6_, symObjAddr: 0xDE00, symBinAddr: 0x10001C2E4, symSize: 0x3C }
  - { offsetInCU: 0x117EA, offset: 0x2765E, size: 0x8, addend: 0x0, symName: __ZNSt3__14pairINS_16reverse_iteratorIPfEES3_EC2B7v160006ERKS3_S6_, symObjAddr: 0xDE3C, symBinAddr: 0x10001C320, symSize: 0x54 }
  - { offsetInCU: 0x11830, offset: 0x276A4, size: 0x8, addend: 0x0, symName: __ZNSt3__118__unwrap_iter_implINS_16reverse_iteratorIPfEELb0EE8__rewrapB7v160006ES3_S3_, symObjAddr: 0xDE90, symBinAddr: 0x10001C374, symSize: 0x2E0 }
  - { offsetInCU: 0x11866, offset: 0x276DA, size: 0x8, addend: 0x0, symName: __ZNSt3__116reverse_iteratorIPfEC2B7v160006ES1_, symObjAddr: 0xE170, symBinAddr: 0x10001C654, symSize: 0xB8 }
  - { offsetInCU: 0x1189E, offset: 0x27712, size: 0x8, addend: 0x0, symName: __ZNSt3__114__split_bufferIfRNS_9allocatorIfEEED2Ev, symObjAddr: 0xE228, symBinAddr: 0x10001C70C, symSize: 0xEC }
  - { offsetInCU: 0x118CA, offset: 0x2773E, size: 0x8, addend: 0x0, symName: __ZNSt3__114__split_bufferIfRNS_9allocatorIfEEE5clearB7v160006Ev, symObjAddr: 0xE314, symBinAddr: 0x10001C7F8, symSize: 0x68 }
  - { offsetInCU: 0x118F0, offset: 0x27764, size: 0x8, addend: 0x0, symName: __ZNKSt3__114__split_bufferIfRNS_9allocatorIfEEE8capacityB7v160006Ev, symObjAddr: 0xE37C, symBinAddr: 0x10001C860, symSize: 0xBC }
  - { offsetInCU: 0x11916, offset: 0x2778A, size: 0x8, addend: 0x0, symName: __ZNSt3__114__split_bufferIfRNS_9allocatorIfEEE17__destruct_at_endB7v160006EPf, symObjAddr: 0xE438, symBinAddr: 0x10001C91C, symSize: 0x2C }
  - { offsetInCU: 0x1194A, offset: 0x277BE, size: 0x8, addend: 0x0, symName: __ZNSt3__114__split_bufferIfRNS_9allocatorIfEEE17__destruct_at_endB7v160006EPfNS_17integral_constantIbLb0EEE, symObjAddr: 0xE464, symBinAddr: 0x10001C948, symSize: 0x120 }
  - { offsetInCU: 0x1198B, offset: 0x277FF, size: 0x8, addend: 0x0, symName: __ZNKSt3__114__split_bufferIfRNS_9allocatorIfEEE9__end_capB7v160006Ev, symObjAddr: 0xE584, symBinAddr: 0x10001CA68, symSize: 0x28 }
  - { offsetInCU: 0x119B1, offset: 0x27825, size: 0x8, addend: 0x0, symName: __ZNKSt3__117__compressed_pairIPfRNS_9allocatorIfEEE5firstB7v160006Ev, symObjAddr: 0xE5AC, symBinAddr: 0x10001CA90, symSize: 0x24 }
  - { offsetInCU: 0x119D7, offset: 0x2784B, size: 0x8, addend: 0x0, symName: __ZNSt3__16vectorIjNS_9allocatorIjEEE9__end_capB7v160006Ev, symObjAddr: 0xE5D0, symBinAddr: 0x10001CAB4, symSize: 0x28 }
  - { offsetInCU: 0x119FD, offset: 0x27871, size: 0x8, addend: 0x0, symName: __ZNSt3__16vectorIjNS_9allocatorIjEEE22__construct_one_at_endB7v160006IJRKjEEEvDpOT_, symObjAddr: 0xE5F8, symBinAddr: 0x10001CADC, symSize: 0x380 }
  - { offsetInCU: 0x11A52, offset: 0x278C6, size: 0x8, addend: 0x0, symName: __ZNSt3__16vectorIjNS_9allocatorIjEEE21__push_back_slow_pathIRKjEEvOT_, symObjAddr: 0xE978, symBinAddr: 0x10001CE5C, symSize: 0x3D4 }
  - { offsetInCU: 0x11AB7, offset: 0x2792B, size: 0x8, addend: 0x0, symName: __ZNSt3__117__compressed_pairIPjNS_9allocatorIjEEE5firstB7v160006Ev, symObjAddr: 0xED4C, symBinAddr: 0x10001D230, symSize: 0x24 }
  - { offsetInCU: 0x11ADD, offset: 0x27951, size: 0x8, addend: 0x0, symName: __ZNSt3__122__compressed_pair_elemIPjLi0ELb0EE5__getB7v160006Ev, symObjAddr: 0xED70, symBinAddr: 0x10001D254, symSize: 0x14 }
  - { offsetInCU: 0x11B1C, offset: 0x27990, size: 0x8, addend: 0x0, symName: __ZNSt3__16vectorIjNS_9allocatorIjEEE21_ConstructTransactionC1B7v160006ERS3_m, symObjAddr: 0xED84, symBinAddr: 0x10001D268, symSize: 0x3C }
  - { offsetInCU: 0x11B64, offset: 0x279D8, size: 0x8, addend: 0x0, symName: __ZNSt3__116allocator_traitsINS_9allocatorIjEEE9constructB7v160006IjJRKjEvEEvRS2_PT_DpOT0_, symObjAddr: 0xEDC0, symBinAddr: 0x10001D2A4, symSize: 0x34 }
  - { offsetInCU: 0x11BBB, offset: 0x27A2F, size: 0x8, addend: 0x0, symName: __ZNSt3__16vectorIjNS_9allocatorIjEEE7__allocB7v160006Ev, symObjAddr: 0xEDF4, symBinAddr: 0x10001D2D8, symSize: 0x28 }
  - { offsetInCU: 0x11BE1, offset: 0x27A55, size: 0x8, addend: 0x0, symName: __ZNSt3__16vectorIjNS_9allocatorIjEEE21_ConstructTransactionD1B7v160006Ev, symObjAddr: 0xEE30, symBinAddr: 0x10001D314, symSize: 0x2C }
  - { offsetInCU: 0x11C0B, offset: 0x27A7F, size: 0x8, addend: 0x0, symName: __ZNSt3__16vectorIjNS_9allocatorIjEEE21_ConstructTransactionC2B7v160006ERS3_m, symObjAddr: 0xEE5C, symBinAddr: 0x10001D340, symSize: 0x1D0 }
  - { offsetInCU: 0x11C53, offset: 0x27AC7, size: 0x8, addend: 0x0, symName: __ZNKSt3__16vectorIjNS_9allocatorIjEEE19__annotate_increaseB7v160006Em, symObjAddr: 0xF02C, symBinAddr: 0x10001D510, symSize: 0xEC }
  - { offsetInCU: 0x11C88, offset: 0x27AFC, size: 0x8, addend: 0x0, symName: __ZNKSt3__16vectorIjNS_9allocatorIjEEE31__annotate_contiguous_containerEPKvS5_S5_S5_, symObjAddr: 0xF118, symBinAddr: 0x10001D5FC, symSize: 0x64 }
  - { offsetInCU: 0x11CEA, offset: 0x27B5E, size: 0x8, addend: 0x0, symName: __ZNKSt3__16vectorIjNS_9allocatorIjEEE4dataB7v160006Ev, symObjAddr: 0xF17C, symBinAddr: 0x10001D660, symSize: 0x64 }
  - { offsetInCU: 0x11D10, offset: 0x27B84, size: 0x8, addend: 0x0, symName: __ZNKSt3__16vectorIjNS_9allocatorIjEEE8capacityB7v160006Ev, symObjAddr: 0xF1E0, symBinAddr: 0x10001D6C4, symSize: 0xBC }
  - { offsetInCU: 0x11D36, offset: 0x27BAA, size: 0x8, addend: 0x0, symName: __ZNKSt3__16vectorIjNS_9allocatorIjEEE9__end_capB7v160006Ev, symObjAddr: 0xF29C, symBinAddr: 0x10001D780, symSize: 0x28 }
  - { offsetInCU: 0x11D5C, offset: 0x27BD0, size: 0x8, addend: 0x0, symName: __ZNKSt3__117__compressed_pairIPjNS_9allocatorIjEEE5firstB7v160006Ev, symObjAddr: 0xF2C4, symBinAddr: 0x10001D7A8, symSize: 0x24 }
  - { offsetInCU: 0x11D82, offset: 0x27BF6, size: 0x8, addend: 0x0, symName: __ZNKSt3__122__compressed_pair_elemIPjLi0ELb0EE5__getB7v160006Ev, symObjAddr: 0xF2E8, symBinAddr: 0x10001D7CC, symSize: 0x14 }
  - { offsetInCU: 0x11DA8, offset: 0x27C1C, size: 0x8, addend: 0x0, symName: __ZNSt3__19allocatorIjE9constructB7v160006IjJRKjEEEvPT_DpOT0_, symObjAddr: 0xF2FC, symBinAddr: 0x10001D7E0, symSize: 0x104 }
  - { offsetInCU: 0x11DFE, offset: 0x27C72, size: 0x8, addend: 0x0, symName: __ZNSt3__117__compressed_pairIPjNS_9allocatorIjEEE6secondB7v160006Ev, symObjAddr: 0xF400, symBinAddr: 0x10001D8E4, symSize: 0x24 }
  - { offsetInCU: 0x11E24, offset: 0x27C98, size: 0x8, addend: 0x0, symName: __ZNSt3__122__compressed_pair_elemINS_9allocatorIjEELi1ELb1EE5__getB7v160006Ev, symObjAddr: 0xF424, symBinAddr: 0x10001D908, symSize: 0x14 }
  - { offsetInCU: 0x11E4A, offset: 0x27CBE, size: 0x8, addend: 0x0, symName: __ZNSt3__16vectorIjNS_9allocatorIjEEE21_ConstructTransactionD2B7v160006Ev, symObjAddr: 0xF438, symBinAddr: 0x10001D91C, symSize: 0x278 }
  - { offsetInCU: 0x11E74, offset: 0x27CE8, size: 0x8, addend: 0x0, symName: __ZNKSt3__16vectorIjNS_9allocatorIjEEE17__annotate_shrinkB7v160006Em, symObjAddr: 0xF6B0, symBinAddr: 0x10001DB94, symSize: 0xDC }
  - { offsetInCU: 0x11EA9, offset: 0x27D1D, size: 0x8, addend: 0x0, symName: __ZNKSt3__16vectorIjNS_9allocatorIjEEE11__recommendB7v160006Em, symObjAddr: 0xF78C, symBinAddr: 0x10001DC70, symSize: 0x384 }
  - { offsetInCU: 0x11F05, offset: 0x27D79, size: 0x8, addend: 0x0, symName: __ZNSt3__114__split_bufferIjRNS_9allocatorIjEEEC1EmmS3_, symObjAddr: 0xFB10, symBinAddr: 0x10001DFF4, symSize: 0x44 }
  - { offsetInCU: 0x11F5B, offset: 0x27DCF, size: 0x8, addend: 0x0, symName: __ZNSt3__114__split_bufferIjRNS_9allocatorIjEEED1Ev, symObjAddr: 0x100C8, symBinAddr: 0x10001E5AC, symSize: 0x2C }
  - { offsetInCU: 0x11F87, offset: 0x27DFB, size: 0x8, addend: 0x0, symName: __ZNKSt3__16vectorIjNS_9allocatorIjEEE8max_sizeEv, symObjAddr: 0x100F4, symBinAddr: 0x10001E5D8, symSize: 0x328 }
  - { offsetInCU: 0x11FB0, offset: 0x27E24, size: 0x8, addend: 0x0, symName: __ZNKSt3__16vectorIjNS_9allocatorIjEEE20__throw_length_errorB7v160006Ev, symObjAddr: 0x1041C, symBinAddr: 0x10001E900, symSize: 0x20 }
  - { offsetInCU: 0x11FE0, offset: 0x27E54, size: 0x8, addend: 0x0, symName: __ZNSt3__116allocator_traitsINS_9allocatorIjEEE8max_sizeB7v160006IS2_vEEmRKS2_, symObjAddr: 0x1043C, symBinAddr: 0x10001E920, symSize: 0x24 }
  - { offsetInCU: 0x1200E, offset: 0x27E82, size: 0x8, addend: 0x0, symName: __ZNKSt3__16vectorIjNS_9allocatorIjEEE7__allocB7v160006Ev, symObjAddr: 0x10460, symBinAddr: 0x10001E944, symSize: 0x28 }
  - { offsetInCU: 0x12034, offset: 0x27EA8, size: 0x8, addend: 0x0, symName: __ZNKSt3__19allocatorIjE8max_sizeB7v160006Ev, symObjAddr: 0x10488, symBinAddr: 0x10001E96C, symSize: 0x14 }
  - { offsetInCU: 0x1205A, offset: 0x27ECE, size: 0x8, addend: 0x0, symName: __ZNKSt3__117__compressed_pairIPjNS_9allocatorIjEEE6secondB7v160006Ev, symObjAddr: 0x1049C, symBinAddr: 0x10001E980, symSize: 0x24 }
  - { offsetInCU: 0x12080, offset: 0x27EF4, size: 0x8, addend: 0x0, symName: __ZNKSt3__122__compressed_pair_elemINS_9allocatorIjEELi1ELb1EE5__getB7v160006Ev, symObjAddr: 0x104C0, symBinAddr: 0x10001E9A4, symSize: 0x14 }
  - { offsetInCU: 0x120A6, offset: 0x27F1A, size: 0x8, addend: 0x0, symName: __ZNSt3__114__split_bufferIjRNS_9allocatorIjEEEC2EmmS3_, symObjAddr: 0x104D4, symBinAddr: 0x10001E9B8, symSize: 0x520 }
  - { offsetInCU: 0x12121, offset: 0x27F95, size: 0x8, addend: 0x0, symName: __ZNSt3__117__compressed_pairIPjRNS_9allocatorIjEEEC1B7v160006IDnS4_EEOT_OT0_, symObjAddr: 0x109F4, symBinAddr: 0x10001EED8, symSize: 0x3C }
  - { offsetInCU: 0x12179, offset: 0x27FED, size: 0x8, addend: 0x0, symName: __ZNSt3__114__split_bufferIjRNS_9allocatorIjEEE7__allocB7v160006Ev, symObjAddr: 0x10CBC, symBinAddr: 0x10001F1A0, symSize: 0x28 }
  - { offsetInCU: 0x1219F, offset: 0x28013, size: 0x8, addend: 0x0, symName: __ZNSt3__114__split_bufferIjRNS_9allocatorIjEEE9__end_capB7v160006Ev, symObjAddr: 0x10CE4, symBinAddr: 0x10001F1C8, symSize: 0x28 }
  - { offsetInCU: 0x121C5, offset: 0x28039, size: 0x8, addend: 0x0, symName: __ZNSt3__117__compressed_pairIPjRNS_9allocatorIjEEEC2B7v160006IDnS4_EEOT_OT0_, symObjAddr: 0x10D0C, symBinAddr: 0x10001F1F0, symSize: 0x48 }
  - { offsetInCU: 0x1221D, offset: 0x28091, size: 0x8, addend: 0x0, symName: __ZNSt3__122__compressed_pair_elemIRNS_9allocatorIjEELi1ELb0EEC2B7v160006IS3_vEEOT_, symObjAddr: 0x10D54, symBinAddr: 0x10001F238, symSize: 0x70 }
  - { offsetInCU: 0x1225F, offset: 0x280D3, size: 0x8, addend: 0x0, symName: __ZNSt3__19allocatorIjE8allocateB7v160006Em, symObjAddr: 0x10DC4, symBinAddr: 0x10001F2A8, symSize: 0x88 }
  - { offsetInCU: 0x12293, offset: 0x28107, size: 0x8, addend: 0x0, symName: __ZNSt3__117__compressed_pairIPjRNS_9allocatorIjEEE6secondB7v160006Ev, symObjAddr: 0x10E4C, symBinAddr: 0x10001F330, symSize: 0x28 }
  - { offsetInCU: 0x122B9, offset: 0x2812D, size: 0x8, addend: 0x0, symName: __ZNSt3__122__compressed_pair_elemIRNS_9allocatorIjEELi1ELb0EE5__getB7v160006Ev, symObjAddr: 0x10E74, symBinAddr: 0x10001F358, symSize: 0x60 }
  - { offsetInCU: 0x122DF, offset: 0x28153, size: 0x8, addend: 0x0, symName: __ZNSt3__117__compressed_pairIPjRNS_9allocatorIjEEE5firstB7v160006Ev, symObjAddr: 0x10ED4, symBinAddr: 0x10001F3B8, symSize: 0x24 }
  - { offsetInCU: 0x12305, offset: 0x28179, size: 0x8, addend: 0x0, symName: __ZNKSt3__16vectorIjNS_9allocatorIjEEE17__annotate_deleteB7v160006Ev, symObjAddr: 0x10EF8, symBinAddr: 0x10001F3DC, symSize: 0xE0 }
  - { offsetInCU: 0x1232B, offset: 0x2819F, size: 0x8, addend: 0x0, symName: __ZNSt3__116reverse_iteratorIPjEC1B7v160006ES1_, symObjAddr: 0x11528, symBinAddr: 0x10001FA0C, symSize: 0x34 }
  - { offsetInCU: 0x12363, offset: 0x281D7, size: 0x8, addend: 0x0, symName: __ZNKSt3__116reverse_iteratorIPjE4baseB7v160006Ev, symObjAddr: 0x1155C, symBinAddr: 0x10001FA40, symSize: 0x64 }
  - { offsetInCU: 0x12389, offset: 0x281FD, size: 0x8, addend: 0x0, symName: __ZNKSt3__16vectorIjNS_9allocatorIjEEE14__annotate_newB7v160006Em, symObjAddr: 0x116F4, symBinAddr: 0x10001FBD8, symSize: 0xD4 }
  - { offsetInCU: 0x123BE, offset: 0x28232, size: 0x8, addend: 0x0, symName: __ZNKSt3__116reverse_iteratorIPjEdeB7v160006Ev, symObjAddr: 0x1194C, symBinAddr: 0x10001FE30, symSize: 0x74 }
  - { offsetInCU: 0x123F3, offset: 0x28267, size: 0x8, addend: 0x0, symName: __ZNSt3__116reverse_iteratorIPjEppB7v160006Ev, symObjAddr: 0x119C0, symBinAddr: 0x10001FEA4, symSize: 0x6C }
  - { offsetInCU: 0x1241E, offset: 0x28292, size: 0x8, addend: 0x0, symName: __ZNSt3__119__to_address_helperINS_16reverse_iteratorIPjEEvE6__callB7v160006ERKS3_, symObjAddr: 0x11EDC, symBinAddr: 0x1000203C0, symSize: 0x58 }
  - { offsetInCU: 0x12441, offset: 0x282B5, size: 0x8, addend: 0x0, symName: __ZNKSt3__116reverse_iteratorIPjEptB7v160006Ev, symObjAddr: 0x11F34, symBinAddr: 0x100020418, symSize: 0x24 }
  - { offsetInCU: 0x12480, offset: 0x282F4, size: 0x8, addend: 0x0, symName: __ZNKSt3__111__move_loopINS_17_ClassicAlgPolicyEEclB7v160006INS_16reverse_iteratorIPjEES6_S6_EENS_4pairIT_T1_EES8_T0_S9_, symObjAddr: 0x13478, symBinAddr: 0x10002195C, symSize: 0x3F8 }
  - { offsetInCU: 0x124FD, offset: 0x28371, size: 0x8, addend: 0x0, symName: __ZNSt3__18_IterOpsINS_17_ClassicAlgPolicyEE11__iter_moveB7v160006IRNS_16reverse_iteratorIPjEEEENS_9enable_ifIXsr12is_referenceIDTdeclsr3stdE7declvalIRT_EEEEE5valueEDTclsr3stdE4movedeclsr3stdE7declvalISA_EEEEE4typeEOS9_, symObjAddr: 0x14364, symBinAddr: 0x100022848, symSize: 0x28 }
  - { offsetInCU: 0x12529, offset: 0x2839D, size: 0x8, addend: 0x0, symName: __ZNSt3__18_IterOpsINS_17_ClassicAlgPolicyEE25__validate_iter_referenceB7v160006IRNS_16reverse_iteratorIPjEEEEvv, symObjAddr: 0x1438C, symBinAddr: 0x100022870, symSize: 0x4 }
  - { offsetInCU: 0x12547, offset: 0x283BB, size: 0x8, addend: 0x0, symName: __ZNSt3__118__unwrap_iter_implINS_16reverse_iteratorIPjEELb0EE8__unwrapB7v160006ES3_, symObjAddr: 0x14390, symBinAddr: 0x100022874, symSize: 0x274 }
  - { offsetInCU: 0x1256E, offset: 0x283E2, size: 0x8, addend: 0x0, symName: __ZNSt3__14pairINS_16reverse_iteratorIPjEES3_EC1B7v160006ERKS3_S6_, symObjAddr: 0x14604, symBinAddr: 0x100022AE8, symSize: 0x3C }
  - { offsetInCU: 0x125B4, offset: 0x28428, size: 0x8, addend: 0x0, symName: __ZNSt3__14pairINS_16reverse_iteratorIPjEES3_EC2B7v160006ERKS3_S6_, symObjAddr: 0x14640, symBinAddr: 0x100022B24, symSize: 0x54 }
  - { offsetInCU: 0x125FA, offset: 0x2846E, size: 0x8, addend: 0x0, symName: __ZNSt3__118__unwrap_iter_implINS_16reverse_iteratorIPjEELb0EE8__rewrapB7v160006ES3_S3_, symObjAddr: 0x14694, symBinAddr: 0x100022B78, symSize: 0x2E0 }
  - { offsetInCU: 0x12630, offset: 0x284A4, size: 0x8, addend: 0x0, symName: __ZNSt3__116reverse_iteratorIPjEC2B7v160006ES1_, symObjAddr: 0x14974, symBinAddr: 0x100022E58, symSize: 0xB8 }
  - { offsetInCU: 0x12668, offset: 0x284DC, size: 0x8, addend: 0x0, symName: __ZNSt3__114__split_bufferIjRNS_9allocatorIjEEED2Ev, symObjAddr: 0x14A2C, symBinAddr: 0x100022F10, symSize: 0xEC }
  - { offsetInCU: 0x12694, offset: 0x28508, size: 0x8, addend: 0x0, symName: __ZNSt3__114__split_bufferIjRNS_9allocatorIjEEE5clearB7v160006Ev, symObjAddr: 0x14B18, symBinAddr: 0x100022FFC, symSize: 0x68 }
  - { offsetInCU: 0x126BA, offset: 0x2852E, size: 0x8, addend: 0x0, symName: __ZNSt3__116allocator_traitsINS_9allocatorIjEEE10deallocateB7v160006ERS2_Pjm, symObjAddr: 0x14B80, symBinAddr: 0x100023064, symSize: 0x34 }
  - { offsetInCU: 0x126FC, offset: 0x28570, size: 0x8, addend: 0x0, symName: __ZNKSt3__114__split_bufferIjRNS_9allocatorIjEEE8capacityB7v160006Ev, symObjAddr: 0x14BB4, symBinAddr: 0x100023098, symSize: 0xBC }
  - { offsetInCU: 0x12722, offset: 0x28596, size: 0x8, addend: 0x0, symName: __ZNSt3__114__split_bufferIjRNS_9allocatorIjEEE17__destruct_at_endB7v160006EPj, symObjAddr: 0x14C70, symBinAddr: 0x100023154, symSize: 0x2C }
  - { offsetInCU: 0x12756, offset: 0x285CA, size: 0x8, addend: 0x0, symName: __ZNSt3__114__split_bufferIjRNS_9allocatorIjEEE17__destruct_at_endB7v160006EPjNS_17integral_constantIbLb0EEE, symObjAddr: 0x14C9C, symBinAddr: 0x100023180, symSize: 0x120 }
  - { offsetInCU: 0x12797, offset: 0x2860B, size: 0x8, addend: 0x0, symName: __ZNSt3__116allocator_traitsINS_9allocatorIjEEE7destroyB7v160006IjvEEvRS2_PT_, symObjAddr: 0x14DBC, symBinAddr: 0x1000232A0, symSize: 0x2C }
  - { offsetInCU: 0x127D4, offset: 0x28648, size: 0x8, addend: 0x0, symName: __ZNSt3__19allocatorIjE7destroyB7v160006EPj, symObjAddr: 0x14DE8, symBinAddr: 0x1000232CC, symSize: 0x14 }
  - { offsetInCU: 0x12808, offset: 0x2867C, size: 0x8, addend: 0x0, symName: __ZNSt3__19allocatorIjE10deallocateB7v160006EPjm, symObjAddr: 0x14DFC, symBinAddr: 0x1000232E0, symSize: 0x7C }
  - { offsetInCU: 0x1284A, offset: 0x286BE, size: 0x8, addend: 0x0, symName: __ZNKSt3__114__split_bufferIjRNS_9allocatorIjEEE9__end_capB7v160006Ev, symObjAddr: 0x14E78, symBinAddr: 0x10002335C, symSize: 0x28 }
  - { offsetInCU: 0x12870, offset: 0x286E4, size: 0x8, addend: 0x0, symName: __ZNKSt3__117__compressed_pairIPjRNS_9allocatorIjEEE5firstB7v160006Ev, symObjAddr: 0x14EA0, symBinAddr: 0x100023384, symSize: 0x24 }
  - { offsetInCU: 0x1289B, offset: 0x2870F, size: 0x8, addend: 0x0, symName: __ZNSt3__110shared_ptrI10BPTreeNodeEC2B7v160006ERKS2_, symObjAddr: 0x16F0C, symBinAddr: 0x1000233A8, symSize: 0x1CC }
  - { offsetInCU: 0x128D4, offset: 0x28748, size: 0x8, addend: 0x0, symName: __ZNSt3__119__shared_weak_count12__add_sharedB7v160006Ev, symObjAddr: 0x170D8, symBinAddr: 0x100023574, symSize: 0x24 }
  - { offsetInCU: 0x128FA, offset: 0x2876E, size: 0x8, addend: 0x0, symName: __ZNSt3__114__shared_count12__add_sharedB7v160006Ev, symObjAddr: 0x170FC, symBinAddr: 0x100023598, symSize: 0x28 }
  - { offsetInCU: 0x12920, offset: 0x28794, size: 0x8, addend: 0x0, symName: __ZNSt3__19allocatorI10BPTreeNodeEC1B7v160006Ev, symObjAddr: 0x17720, symBinAddr: 0x100023940, symSize: 0x2C }
  - { offsetInCU: 0x12986, offset: 0x287FA, size: 0x8, addend: 0x0, symName: __ZNSt3__118__allocation_guardINS_9allocatorINS_20__shared_ptr_emplaceI10BPTreeNodeNS1_IS3_EEEEEEEC1B7v160006IS4_EET_m, symObjAddr: 0x1774C, symBinAddr: 0x10002396C, symSize: 0x34 }
  - { offsetInCU: 0x129D5, offset: 0x28849, size: 0x8, addend: 0x0, symName: __ZNKSt3__118__allocation_guardINS_9allocatorINS_20__shared_ptr_emplaceI10BPTreeNodeNS1_IS3_EEEEEEE5__getB7v160006Ev, symObjAddr: 0x17780, symBinAddr: 0x1000239A0, symSize: 0x64 }
  - { offsetInCU: 0x129FB, offset: 0x2886F, size: 0x8, addend: 0x0, symName: __ZNSt3__120__shared_ptr_emplaceI10BPTreeNodeNS_9allocatorIS1_EEEC1B7v160006IJRbEEES3_DpOT_, symObjAddr: 0x177E4, symBinAddr: 0x100023A04, symSize: 0x34 }
  - { offsetInCU: 0x12A4E, offset: 0x288C2, size: 0x8, addend: 0x0, symName: __ZNSt3__118__allocation_guardINS_9allocatorINS_20__shared_ptr_emplaceI10BPTreeNodeNS1_IS3_EEEEEEE13__release_ptrB7v160006Ev, symObjAddr: 0x17818, symBinAddr: 0x100023A38, symSize: 0xA8 }
  - { offsetInCU: 0x12A83, offset: 0x288F7, size: 0x8, addend: 0x0, symName: __ZNSt3__110shared_ptrI10BPTreeNodeE27__create_with_control_blockB7v160006IS1_NS_20__shared_ptr_emplaceIS1_NS_9allocatorIS1_EEEEEES2_PT_PT0_, symObjAddr: 0x178C0, symBinAddr: 0x100023AE0, symSize: 0x1A4 }
  - { offsetInCU: 0x12AD8, offset: 0x2894C, size: 0x8, addend: 0x0, symName: __ZNSt3__120__shared_ptr_emplaceI10BPTreeNodeNS_9allocatorIS1_EEE10__get_elemB7v160006Ev, symObjAddr: 0x17A64, symBinAddr: 0x100023C84, symSize: 0x28 }
  - { offsetInCU: 0x12AFE, offset: 0x28972, size: 0x8, addend: 0x0, symName: __ZNSt3__118__allocation_guardINS_9allocatorINS_20__shared_ptr_emplaceI10BPTreeNodeNS1_IS3_EEEEEEED1B7v160006Ev, symObjAddr: 0x17A8C, symBinAddr: 0x100023CAC, symSize: 0x2C }
  - { offsetInCU: 0x12B28, offset: 0x2899C, size: 0x8, addend: 0x0, symName: __ZNSt3__118__allocation_guardINS_9allocatorINS_20__shared_ptr_emplaceI10BPTreeNodeNS1_IS3_EEEEEEEC2B7v160006IS4_EET_m, symObjAddr: 0x17AB8, symBinAddr: 0x100023CD8, symSize: 0x28C }
  - { offsetInCU: 0x12B7D, offset: 0x289F1, size: 0x8, addend: 0x0, symName: __ZNSt3__19allocatorINS_20__shared_ptr_emplaceI10BPTreeNodeNS0_IS2_EEEEEC1B7v160006IS2_EERKNS0_IT_EE, symObjAddr: 0x17D44, symBinAddr: 0x100023F64, symSize: 0x34 }
  - { offsetInCU: 0x12BBB, offset: 0x28A2F, size: 0x8, addend: 0x0, symName: __ZNSt3__116allocator_traitsINS_9allocatorINS_20__shared_ptr_emplaceI10BPTreeNodeNS1_IS3_EEEEEEE8allocateB7v160006ERS6_m, symObjAddr: 0x17D78, symBinAddr: 0x100023F98, symSize: 0x2C }
  - { offsetInCU: 0x12BEE, offset: 0x28A62, size: 0x8, addend: 0x0, symName: __ZNSt3__19allocatorINS_20__shared_ptr_emplaceI10BPTreeNodeNS0_IS2_EEEEEC2B7v160006IS2_EERKNS0_IT_EE, symObjAddr: 0x17DA4, symBinAddr: 0x100023FC4, symSize: 0x30 }
  - { offsetInCU: 0x12C2C, offset: 0x28AA0, size: 0x8, addend: 0x0, symName: __ZNSt3__116__non_trivial_ifILb1ENS_9allocatorINS_20__shared_ptr_emplaceI10BPTreeNodeNS1_IS3_EEEEEEEC2B7v160006Ev, symObjAddr: 0x17DD4, symBinAddr: 0x100023FF4, symSize: 0x14 }
  - { offsetInCU: 0x12C56, offset: 0x28ACA, size: 0x8, addend: 0x0, symName: __ZNSt3__19allocatorINS_20__shared_ptr_emplaceI10BPTreeNodeNS0_IS2_EEEEE8allocateB7v160006Em, symObjAddr: 0x17DE8, symBinAddr: 0x100024008, symSize: 0x90 }
  - { offsetInCU: 0x12C94, offset: 0x28B08, size: 0x8, addend: 0x0, symName: __ZNSt3__116allocator_traitsINS_9allocatorINS_20__shared_ptr_emplaceI10BPTreeNodeNS1_IS3_EEEEEEE8max_sizeB7v160006IS6_vEEmRKS6_, symObjAddr: 0x17E78, symBinAddr: 0x100024098, symSize: 0x24 }
  - { offsetInCU: 0x12CC2, offset: 0x28B36, size: 0x8, addend: 0x0, symName: __ZNKSt3__19allocatorINS_20__shared_ptr_emplaceI10BPTreeNodeNS0_IS2_EEEEE8max_sizeB7v160006Ev, symObjAddr: 0x17E9C, symBinAddr: 0x1000240BC, symSize: 0x18 }
  - { offsetInCU: 0x12CE8, offset: 0x28B5C, size: 0x8, addend: 0x0, symName: __ZNSt3__120__shared_ptr_emplaceI10BPTreeNodeNS_9allocatorIS1_EEEC2B7v160006IJRbEEES3_DpOT_, symObjAddr: 0x17EB4, symBinAddr: 0x1000240D4, symSize: 0x364 }
  - { offsetInCU: 0x12D41, offset: 0x28BB5, size: 0x8, addend: 0x0, symName: __ZNSt3__119__shared_weak_countC2B7v160006El, symObjAddr: 0x18218, symBinAddr: 0x100024438, symSize: 0xD0 }
  - { offsetInCU: 0x12D79, offset: 0x28BED, size: 0x8, addend: 0x0, symName: __ZNSt3__120__shared_ptr_emplaceI10BPTreeNodeNS_9allocatorIS1_EEE8_StorageC1B7v160006EOS3_, symObjAddr: 0x182E8, symBinAddr: 0x100024508, symSize: 0x34 }
  - { offsetInCU: 0x12DB2, offset: 0x28C26, size: 0x8, addend: 0x0, symName: __ZNSt3__120__shared_ptr_emplaceI10BPTreeNodeNS_9allocatorIS1_EEE8_StorageD1B7v160006Ev, symObjAddr: 0x1831C, symBinAddr: 0x10002453C, symSize: 0x2C }
  - { offsetInCU: 0x12DDC, offset: 0x28C50, size: 0x8, addend: 0x0, symName: __ZNSt3__120__shared_ptr_emplaceI10BPTreeNodeNS_9allocatorIS1_EEED1Ev, symObjAddr: 0x18348, symBinAddr: 0x100024568, symSize: 0x2C }
  - { offsetInCU: 0x12E09, offset: 0x28C7D, size: 0x8, addend: 0x0, symName: __ZNSt3__120__shared_ptr_emplaceI10BPTreeNodeNS_9allocatorIS1_EEED0Ev, symObjAddr: 0x18374, symBinAddr: 0x100024594, symSize: 0x58 }
  - { offsetInCU: 0x12E36, offset: 0x28CAA, size: 0x8, addend: 0x0, symName: __ZNSt3__120__shared_ptr_emplaceI10BPTreeNodeNS_9allocatorIS1_EEE16__on_zero_sharedEv, symObjAddr: 0x183CC, symBinAddr: 0x1000245EC, symSize: 0x50 }
  - { offsetInCU: 0x12E5C, offset: 0x28CD0, size: 0x8, addend: 0x0, symName: __ZNSt3__120__shared_ptr_emplaceI10BPTreeNodeNS_9allocatorIS1_EEE21__on_zero_shared_weakEv, symObjAddr: 0x1841C, symBinAddr: 0x10002463C, symSize: 0x240 }
  - { offsetInCU: 0x12EA2, offset: 0x28D16, size: 0x8, addend: 0x0, symName: __ZNSt3__114__shared_countC2B7v160006El, symObjAddr: 0x1865C, symBinAddr: 0x10002487C, symSize: 0xC0 }
  - { offsetInCU: 0x12EDA, offset: 0x28D4E, size: 0x8, addend: 0x0, symName: __ZNSt3__120__shared_ptr_emplaceI10BPTreeNodeNS_9allocatorIS1_EEE8_StorageC2B7v160006EOS3_, symObjAddr: 0x1871C, symBinAddr: 0x10002493C, symSize: 0x30 }
  - { offsetInCU: 0x12F13, offset: 0x28D87, size: 0x8, addend: 0x0, symName: __ZNSt3__120__shared_ptr_emplaceI10BPTreeNodeNS_9allocatorIS1_EEE8_Storage11__get_allocEv, symObjAddr: 0x1874C, symBinAddr: 0x10002496C, symSize: 0x3C }
  - { offsetInCU: 0x12F66, offset: 0x28DDA, size: 0x8, addend: 0x0, symName: __ZNSt3__117__compressed_pairINS_9allocatorI10BPTreeNodeEES2_E16__get_first_baseB7v160006EPS4_, symObjAddr: 0x18788, symBinAddr: 0x1000249A8, symSize: 0x14 }
  - { offsetInCU: 0x12F89, offset: 0x28DFD, size: 0x8, addend: 0x0, symName: __ZNSt3__120__shared_ptr_emplaceI10BPTreeNodeNS_9allocatorIS1_EEE8_StorageD2B7v160006Ev, symObjAddr: 0x1879C, symBinAddr: 0x1000249BC, symSize: 0x2C }
  - { offsetInCU: 0x12FB3, offset: 0x28E27, size: 0x8, addend: 0x0, symName: __ZNSt3__120__shared_ptr_emplaceI10BPTreeNodeNS_9allocatorIS1_EEED2Ev, symObjAddr: 0x187C8, symBinAddr: 0x1000249E8, symSize: 0xC4 }
  - { offsetInCU: 0x12FE0, offset: 0x28E54, size: 0x8, addend: 0x0, symName: __ZN10BPTreeNodeD1Ev, symObjAddr: 0x1888C, symBinAddr: 0x100024AAC, symSize: 0x2C }
  - { offsetInCU: 0x1300C, offset: 0x28E80, size: 0x8, addend: 0x0, symName: __ZN10BPTreeNodeD2Ev, symObjAddr: 0x188B8, symBinAddr: 0x100024AD8, symSize: 0xD8 }
  - { offsetInCU: 0x13038, offset: 0x28EAC, size: 0x8, addend: 0x0, symName: __ZNSt3__16vectorIjNS_9allocatorIjEEED1B7v160006Ev, symObjAddr: 0x18990, symBinAddr: 0x100024BB0, symSize: 0x2C }
  - { offsetInCU: 0x13062, offset: 0x28ED6, size: 0x8, addend: 0x0, symName: __ZNSt3__16vectorIjNS_9allocatorIjEEED2B7v160006Ev, symObjAddr: 0x189BC, symBinAddr: 0x100024BDC, symSize: 0x1E0 }
  - { offsetInCU: 0x1308D, offset: 0x28F01, size: 0x8, addend: 0x0, symName: __ZNSt3__16vectorIjNS_9allocatorIjEEE16__destroy_vectorC1ERS3_, symObjAddr: 0x18B9C, symBinAddr: 0x100024DBC, symSize: 0x34 }
  - { offsetInCU: 0x130C6, offset: 0x28F3A, size: 0x8, addend: 0x0, symName: __ZNSt3__16vectorIjNS_9allocatorIjEEE16__destroy_vectorclB7v160006Ev, symObjAddr: 0x18BD0, symBinAddr: 0x100024DF0, symSize: 0x264 }
  - { offsetInCU: 0x130EC, offset: 0x28F60, size: 0x8, addend: 0x0, symName: __ZNSt3__16vectorIjNS_9allocatorIjEEE16__destroy_vectorC2ERS3_, symObjAddr: 0x18E34, symBinAddr: 0x100025054, symSize: 0x70 }
  - { offsetInCU: 0x13125, offset: 0x28F99, size: 0x8, addend: 0x0, symName: __ZNSt3__16vectorIjNS_9allocatorIjEEE7__clearB7v160006Ev, symObjAddr: 0x18EB4, symBinAddr: 0x1000250D4, symSize: 0x64 }
  - { offsetInCU: 0x1314B, offset: 0x28FBF, size: 0x8, addend: 0x0, symName: __ZNSt3__16vectorIjNS_9allocatorIjEEE22__base_destruct_at_endB7v160006EPj, symObjAddr: 0x18F18, symBinAddr: 0x100025138, symSize: 0x128 }
  - { offsetInCU: 0x1318F, offset: 0x29003, size: 0x8, addend: 0x0, symName: __ZNSt3__120__shared_ptr_emplaceI10BPTreeNodeNS_9allocatorIS1_EEE11__get_allocB7v160006Ev, symObjAddr: 0x19040, symBinAddr: 0x100025260, symSize: 0x28 }
  - { offsetInCU: 0x131B5, offset: 0x29029, size: 0x8, addend: 0x0, symName: __ZNSt3__116allocator_traitsINS_9allocatorINS_20__shared_ptr_emplaceI10BPTreeNodeNS1_IS3_EEEEEEE10deallocateB7v160006ERS6_PS5_m, symObjAddr: 0x19068, symBinAddr: 0x100025288, symSize: 0x34 }
  - { offsetInCU: 0x131F7, offset: 0x2906B, size: 0x8, addend: 0x0, symName: __ZNSt3__114pointer_traitsIPNS_20__shared_ptr_emplaceI10BPTreeNodeNS_9allocatorIS2_EEEEE10pointer_toB7v160006ERS5_, symObjAddr: 0x1909C, symBinAddr: 0x1000252BC, symSize: 0x14 }
  - { offsetInCU: 0x1321A, offset: 0x2908E, size: 0x8, addend: 0x0, symName: __ZNSt3__19allocatorINS_20__shared_ptr_emplaceI10BPTreeNodeNS0_IS2_EEEEE10deallocateB7v160006EPS4_m, symObjAddr: 0x190B0, symBinAddr: 0x1000252D0, symSize: 0x80 }
  - { offsetInCU: 0x1325C, offset: 0x290D0, size: 0x8, addend: 0x0, symName: __ZNKSt3__18weak_ptrI10BPTreeNodeE7expiredB7v160006Ev, symObjAddr: 0x19390, symBinAddr: 0x1000255B0, symSize: 0xD8 }
  - { offsetInCU: 0x13282, offset: 0x290F6, size: 0x8, addend: 0x0, symName: __ZNSt3__110shared_ptrI10BPTreeNodeEC1B7v160006IS1_EERKNS0_IT_EEPS1_, symObjAddr: 0x19468, symBinAddr: 0x100025688, symSize: 0x3C }
  - { offsetInCU: 0x132D3, offset: 0x29147, size: 0x8, addend: 0x0, symName: __ZNSt3__18weak_ptrI10BPTreeNodeEaSIS1_EENS_9enable_ifIXsr17__compatible_withIT_S1_EE5valueERS2_E4typeERKNS_10shared_ptrIS5_EE, symObjAddr: 0x194A4, symBinAddr: 0x1000256C4, symSize: 0x230 }
  - { offsetInCU: 0x13315, offset: 0x29189, size: 0x8, addend: 0x0, symName: __ZNKSt3__119__shared_weak_count9use_countB7v160006Ev, symObjAddr: 0x196D4, symBinAddr: 0x1000258F4, symSize: 0x24 }
  - { offsetInCU: 0x1333B, offset: 0x291AF, size: 0x8, addend: 0x0, symName: __ZNKSt3__114__shared_count9use_countB7v160006Ev, symObjAddr: 0x196F8, symBinAddr: 0x100025918, symSize: 0x5C }
  - { offsetInCU: 0x13361, offset: 0x291D5, size: 0x8, addend: 0x0, symName: __ZNSt3__110shared_ptrI10BPTreeNodeEC2B7v160006IS1_EERKNS0_IT_EEPS1_, symObjAddr: 0x197BC, symBinAddr: 0x1000259DC, symSize: 0x198 }
  - { offsetInCU: 0x133B7, offset: 0x2922B, size: 0x8, addend: 0x0, symName: __ZNSt3__18weak_ptrI10BPTreeNodeEC1IS1_EERKNS_10shared_ptrIT_EENS_9enable_ifIXsr17__compatible_withIS5_S1_EE5valueEPNS_5__natEE4typeE, symObjAddr: 0x19954, symBinAddr: 0x100025B74, symSize: 0x3C }
  - { offsetInCU: 0x13407, offset: 0x2927B, size: 0x8, addend: 0x0, symName: __ZNSt3__18weak_ptrI10BPTreeNodeE4swapERS2_, symObjAddr: 0x19990, symBinAddr: 0x100025BB0, symSize: 0x70 }
  - { offsetInCU: 0x1343E, offset: 0x292B2, size: 0x8, addend: 0x0, symName: __ZNSt3__18weak_ptrI10BPTreeNodeEC2IS1_EERKNS_10shared_ptrIT_EENS_9enable_ifIXsr17__compatible_withIS5_S1_EE5valueEPNS_5__natEE4typeE, symObjAddr: 0x19A00, symBinAddr: 0x100025C20, symSize: 0x1D0 }
  - { offsetInCU: 0x1348E, offset: 0x29302, size: 0x8, addend: 0x0, symName: __ZNSt3__119__shared_weak_count10__add_weakB7v160006Ev, symObjAddr: 0x19BD0, symBinAddr: 0x100025DF0, symSize: 0x28 }
  - { offsetInCU: 0x134B4, offset: 0x29328, size: 0x8, addend: 0x0, symName: __ZNSt3__120__shared_ptr_emplaceI10BPTreeNodeNS_9allocatorIS1_EEE8_Storage10__get_elemEv, symObjAddr: 0x19E60, symBinAddr: 0x100026080, symSize: 0x3C }
  - { offsetInCU: 0x13507, offset: 0x2937B, size: 0x8, addend: 0x0, symName: __ZNSt3__117__compressed_pairINS_9allocatorI10BPTreeNodeEES2_E17__get_second_baseB7v160006EPS4_, symObjAddr: 0x19E9C, symBinAddr: 0x1000260BC, symSize: 0x14 }
  - { offsetInCU: 0x1352A, offset: 0x2939E, size: 0x8, addend: 0x0, symName: __ZNSt3__118__allocation_guardINS_9allocatorINS_20__shared_ptr_emplaceI10BPTreeNodeNS1_IS3_EEEEEEED2B7v160006Ev, symObjAddr: 0x19EB0, symBinAddr: 0x1000260D0, symSize: 0x108 }
  - { offsetInCU: 0x13554, offset: 0x293C8, size: 0x8, addend: 0x0, symName: __ZNSt3__19allocatorI10BPTreeNodeEC2B7v160006Ev, symObjAddr: 0x19FB8, symBinAddr: 0x1000261D8, symSize: 0x2C }
  - { offsetInCU: 0x1357E, offset: 0x293F2, size: 0x8, addend: 0x0, symName: __ZNSt3__116__non_trivial_ifILb1ENS_9allocatorI10BPTreeNodeEEEC2B7v160006Ev, symObjAddr: 0x19FE4, symBinAddr: 0x100026204, symSize: 0x14 }
  - { offsetInCU: 0x135A8, offset: 0x2941C, size: 0x8, addend: 0x0, symName: __ZNSt3__16vectorINS_10shared_ptrI10BPTreeNodeEENS_9allocatorIS3_EEE9__end_capB7v160006Ev, symObjAddr: 0x19FF8, symBinAddr: 0x100026218, symSize: 0x28 }
  - { offsetInCU: 0x135CE, offset: 0x29442, size: 0x8, addend: 0x0, symName: __ZNSt3__16vectorINS_10shared_ptrI10BPTreeNodeEENS_9allocatorIS3_EEE22__construct_one_at_endB7v160006IJRKS3_EEEvDpOT_, symObjAddr: 0x1A020, symBinAddr: 0x100026240, symSize: 0x380 }
  - { offsetInCU: 0x13623, offset: 0x29497, size: 0x8, addend: 0x0, symName: __ZNSt3__16vectorINS_10shared_ptrI10BPTreeNodeEENS_9allocatorIS3_EEE21__push_back_slow_pathIRKS3_EEvOT_, symObjAddr: 0x1A3A0, symBinAddr: 0x1000265C0, symSize: 0x3D4 }
  - { offsetInCU: 0x13688, offset: 0x294FC, size: 0x8, addend: 0x0, symName: __ZNSt3__117__compressed_pairIPNS_10shared_ptrI10BPTreeNodeEENS_9allocatorIS3_EEE5firstB7v160006Ev, symObjAddr: 0x1A774, symBinAddr: 0x100026994, symSize: 0x24 }
  - { offsetInCU: 0x136AE, offset: 0x29522, size: 0x8, addend: 0x0, symName: __ZNSt3__122__compressed_pair_elemIPNS_10shared_ptrI10BPTreeNodeEELi0ELb0EE5__getB7v160006Ev, symObjAddr: 0x1A798, symBinAddr: 0x1000269B8, symSize: 0x14 }
  - { offsetInCU: 0x136ED, offset: 0x29561, size: 0x8, addend: 0x0, symName: __ZNSt3__16vectorINS_10shared_ptrI10BPTreeNodeEENS_9allocatorIS3_EEE21_ConstructTransactionC1B7v160006ERS6_m, symObjAddr: 0x1A7AC, symBinAddr: 0x1000269CC, symSize: 0x3C }
  - { offsetInCU: 0x13735, offset: 0x295A9, size: 0x8, addend: 0x0, symName: __ZNSt3__116allocator_traitsINS_9allocatorINS_10shared_ptrI10BPTreeNodeEEEEE9constructB7v160006IS4_JRKS4_EvEEvRS5_PT_DpOT0_, symObjAddr: 0x1A7E8, symBinAddr: 0x100026A08, symSize: 0x34 }
  - { offsetInCU: 0x1378C, offset: 0x29600, size: 0x8, addend: 0x0, symName: __ZNSt3__16vectorINS_10shared_ptrI10BPTreeNodeEENS_9allocatorIS3_EEE21_ConstructTransactionD1B7v160006Ev, symObjAddr: 0x1A81C, symBinAddr: 0x100026A3C, symSize: 0x2C }
  - { offsetInCU: 0x137B6, offset: 0x2962A, size: 0x8, addend: 0x0, symName: __ZNSt3__16vectorINS_10shared_ptrI10BPTreeNodeEENS_9allocatorIS3_EEE21_ConstructTransactionC2B7v160006ERS6_m, symObjAddr: 0x1A848, symBinAddr: 0x100026A68, symSize: 0x1D0 }
  - { offsetInCU: 0x137FE, offset: 0x29672, size: 0x8, addend: 0x0, symName: __ZNKSt3__16vectorINS_10shared_ptrI10BPTreeNodeEENS_9allocatorIS3_EEE19__annotate_increaseB7v160006Em, symObjAddr: 0x1AA18, symBinAddr: 0x100026C38, symSize: 0xEC }
  - { offsetInCU: 0x13833, offset: 0x296A7, size: 0x8, addend: 0x0, symName: __ZNSt3__19allocatorINS_10shared_ptrI10BPTreeNodeEEE9constructB7v160006IS3_JRKS3_EEEvPT_DpOT0_, symObjAddr: 0x1AB04, symBinAddr: 0x100026D24, symSize: 0x30 }
  - { offsetInCU: 0x13889, offset: 0x296FD, size: 0x8, addend: 0x0, symName: __ZNSt3__16vectorINS_10shared_ptrI10BPTreeNodeEENS_9allocatorIS3_EEE21_ConstructTransactionD2B7v160006Ev, symObjAddr: 0x1AB34, symBinAddr: 0x100026D54, symSize: 0x278 }
  - { offsetInCU: 0x138B3, offset: 0x29727, size: 0x8, addend: 0x0, symName: __ZNKSt3__16vectorINS_10shared_ptrI10BPTreeNodeEENS_9allocatorIS3_EEE17__annotate_shrinkB7v160006Em, symObjAddr: 0x1ADAC, symBinAddr: 0x100026FCC, symSize: 0xDC }
  - { offsetInCU: 0x138E8, offset: 0x2975C, size: 0x8, addend: 0x0, symName: __ZNKSt3__16vectorINS_10shared_ptrI10BPTreeNodeEENS_9allocatorIS3_EEE11__recommendB7v160006Em, symObjAddr: 0x1AE88, symBinAddr: 0x1000270A8, symSize: 0x384 }
  - { offsetInCU: 0x13944, offset: 0x297B8, size: 0x8, addend: 0x0, symName: __ZNSt3__114__split_bufferINS_10shared_ptrI10BPTreeNodeEERNS_9allocatorIS3_EEEC1EmmS6_, symObjAddr: 0x1B20C, symBinAddr: 0x10002742C, symSize: 0x44 }
  - { offsetInCU: 0x1399A, offset: 0x2980E, size: 0x8, addend: 0x0, symName: __ZNSt3__114__split_bufferINS_10shared_ptrI10BPTreeNodeEERNS_9allocatorIS3_EEED1Ev, symObjAddr: 0x1B7C4, symBinAddr: 0x1000279E4, symSize: 0x2C }
  - { offsetInCU: 0x139C6, offset: 0x2983A, size: 0x8, addend: 0x0, symName: __ZNKSt3__16vectorINS_10shared_ptrI10BPTreeNodeEENS_9allocatorIS3_EEE8max_sizeEv, symObjAddr: 0x1B7F0, symBinAddr: 0x100027A10, symSize: 0x328 }
  - { offsetInCU: 0x139EF, offset: 0x29863, size: 0x8, addend: 0x0, symName: __ZNKSt3__16vectorINS_10shared_ptrI10BPTreeNodeEENS_9allocatorIS3_EEE20__throw_length_errorB7v160006Ev, symObjAddr: 0x1BB18, symBinAddr: 0x100027D38, symSize: 0x20 }
  - { offsetInCU: 0x13A1F, offset: 0x29893, size: 0x8, addend: 0x0, symName: __ZNSt3__116allocator_traitsINS_9allocatorINS_10shared_ptrI10BPTreeNodeEEEEE8max_sizeB7v160006IS5_vEEmRKS5_, symObjAddr: 0x1BB38, symBinAddr: 0x100027D58, symSize: 0x24 }
  - { offsetInCU: 0x13A4D, offset: 0x298C1, size: 0x8, addend: 0x0, symName: __ZNKSt3__16vectorINS_10shared_ptrI10BPTreeNodeEENS_9allocatorIS3_EEE7__allocB7v160006Ev, symObjAddr: 0x1BB5C, symBinAddr: 0x100027D7C, symSize: 0x28 }
  - { offsetInCU: 0x13A73, offset: 0x298E7, size: 0x8, addend: 0x0, symName: __ZNKSt3__19allocatorINS_10shared_ptrI10BPTreeNodeEEE8max_sizeB7v160006Ev, symObjAddr: 0x1BB84, symBinAddr: 0x100027DA4, symSize: 0x14 }
  - { offsetInCU: 0x13A99, offset: 0x2990D, size: 0x8, addend: 0x0, symName: __ZNKSt3__117__compressed_pairIPNS_10shared_ptrI10BPTreeNodeEENS_9allocatorIS3_EEE6secondB7v160006Ev, symObjAddr: 0x1BB98, symBinAddr: 0x100027DB8, symSize: 0x24 }
  - { offsetInCU: 0x13ABF, offset: 0x29933, size: 0x8, addend: 0x0, symName: __ZNKSt3__122__compressed_pair_elemINS_9allocatorINS_10shared_ptrI10BPTreeNodeEEEELi1ELb1EE5__getB7v160006Ev, symObjAddr: 0x1BBBC, symBinAddr: 0x100027DDC, symSize: 0x14 }
  - { offsetInCU: 0x13AE5, offset: 0x29959, size: 0x8, addend: 0x0, symName: __ZNSt3__114__split_bufferINS_10shared_ptrI10BPTreeNodeEERNS_9allocatorIS3_EEEC2EmmS6_, symObjAddr: 0x1BBD0, symBinAddr: 0x100027DF0, symSize: 0x520 }
  - { offsetInCU: 0x13B60, offset: 0x299D4, size: 0x8, addend: 0x0, symName: __ZNSt3__117__compressed_pairIPNS_10shared_ptrI10BPTreeNodeEERNS_9allocatorIS3_EEEC1B7v160006IDnS7_EEOT_OT0_, symObjAddr: 0x1C0F0, symBinAddr: 0x100028310, symSize: 0x3C }
  - { offsetInCU: 0x13BB8, offset: 0x29A2C, size: 0x8, addend: 0x0, symName: __ZNSt3__114__split_bufferINS_10shared_ptrI10BPTreeNodeEERNS_9allocatorIS3_EEE7__allocB7v160006Ev, symObjAddr: 0x1C3B8, symBinAddr: 0x1000285D8, symSize: 0x28 }
  - { offsetInCU: 0x13BDE, offset: 0x29A52, size: 0x8, addend: 0x0, symName: __ZNSt3__114__split_bufferINS_10shared_ptrI10BPTreeNodeEERNS_9allocatorIS3_EEE9__end_capB7v160006Ev, symObjAddr: 0x1C3E0, symBinAddr: 0x100028600, symSize: 0x28 }
  - { offsetInCU: 0x13C04, offset: 0x29A78, size: 0x8, addend: 0x0, symName: __ZNSt3__117__compressed_pairIPNS_10shared_ptrI10BPTreeNodeEERNS_9allocatorIS3_EEEC2B7v160006IDnS7_EEOT_OT0_, symObjAddr: 0x1C408, symBinAddr: 0x100028628, symSize: 0x48 }
  - { offsetInCU: 0x13C5C, offset: 0x29AD0, size: 0x8, addend: 0x0, symName: __ZNSt3__122__compressed_pair_elemIRNS_9allocatorINS_10shared_ptrI10BPTreeNodeEEEELi1ELb0EEC2B7v160006IS6_vEEOT_, symObjAddr: 0x1C450, symBinAddr: 0x100028670, symSize: 0x70 }
  - { offsetInCU: 0x13C9E, offset: 0x29B12, size: 0x8, addend: 0x0, symName: __ZNSt3__19allocatorINS_10shared_ptrI10BPTreeNodeEEE8allocateB7v160006Em, symObjAddr: 0x1C4C0, symBinAddr: 0x1000286E0, symSize: 0x88 }
  - { offsetInCU: 0x13CD2, offset: 0x29B46, size: 0x8, addend: 0x0, symName: __ZNSt3__117__compressed_pairIPNS_10shared_ptrI10BPTreeNodeEERNS_9allocatorIS3_EEE6secondB7v160006Ev, symObjAddr: 0x1C548, symBinAddr: 0x100028768, symSize: 0x28 }
  - { offsetInCU: 0x13CF8, offset: 0x29B6C, size: 0x8, addend: 0x0, symName: __ZNSt3__122__compressed_pair_elemIRNS_9allocatorINS_10shared_ptrI10BPTreeNodeEEEELi1ELb0EE5__getB7v160006Ev, symObjAddr: 0x1C570, symBinAddr: 0x100028790, symSize: 0x60 }
  - { offsetInCU: 0x13D1E, offset: 0x29B92, size: 0x8, addend: 0x0, symName: __ZNSt3__117__compressed_pairIPNS_10shared_ptrI10BPTreeNodeEERNS_9allocatorIS3_EEE5firstB7v160006Ev, symObjAddr: 0x1C5D0, symBinAddr: 0x1000287F0, symSize: 0x24 }
  - { offsetInCU: 0x13D44, offset: 0x29BB8, size: 0x8, addend: 0x0, symName: __ZNSt3__116reverse_iteratorIPNS_10shared_ptrI10BPTreeNodeEEEC1B7v160006ES4_, symObjAddr: 0x1CB4C, symBinAddr: 0x100028D6C, symSize: 0x34 }
  - { offsetInCU: 0x13D7C, offset: 0x29BF0, size: 0x8, addend: 0x0, symName: __ZNKSt3__116reverse_iteratorIPNS_10shared_ptrI10BPTreeNodeEEE4baseB7v160006Ev, symObjAddr: 0x1CB80, symBinAddr: 0x100028DA0, symSize: 0x64 }
  - { offsetInCU: 0x13DA2, offset: 0x29C16, size: 0x8, addend: 0x0, symName: __ZNKSt3__16vectorINS_10shared_ptrI10BPTreeNodeEENS_9allocatorIS3_EEE14__annotate_newB7v160006Em, symObjAddr: 0x1CD18, symBinAddr: 0x100028F38, symSize: 0xD4 }
  - { offsetInCU: 0x13DD7, offset: 0x29C4B, size: 0x8, addend: 0x0, symName: __ZNSt3__129_AllocatorDestroyRangeReverseINS_9allocatorINS_10shared_ptrI10BPTreeNodeEEEENS_16reverse_iteratorIPS4_EEEC1B7v160006ERS5_RS8_SB_, symObjAddr: 0x1CFF4, symBinAddr: 0x100029214, symSize: 0x44 }
  - { offsetInCU: 0x13E2E, offset: 0x29CA2, size: 0x8, addend: 0x0, symName: __ZNKSt3__116reverse_iteratorIPNS_10shared_ptrI10BPTreeNodeEEEdeB7v160006Ev, symObjAddr: 0x1D0A4, symBinAddr: 0x1000292C4, symSize: 0x74 }
  - { offsetInCU: 0x13E63, offset: 0x29CD7, size: 0x8, addend: 0x0, symName: __ZNSt3__116reverse_iteratorIPNS_10shared_ptrI10BPTreeNodeEEEppB7v160006Ev, symObjAddr: 0x1D118, symBinAddr: 0x100029338, symSize: 0x6C }
  - { offsetInCU: 0x13E89, offset: 0x29CFD, size: 0x8, addend: 0x0, symName: __ZNSt3__128__exception_guard_exceptionsINS_29_AllocatorDestroyRangeReverseINS_9allocatorINS_10shared_ptrI10BPTreeNodeEEEENS_16reverse_iteratorIPS5_EEEEE10__completeB7v160006Ev, symObjAddr: 0x1D184, symBinAddr: 0x1000293A4, symSize: 0x8C }
  - { offsetInCU: 0x13EAF, offset: 0x29D23, size: 0x8, addend: 0x0, symName: __ZNSt3__128__exception_guard_exceptionsINS_29_AllocatorDestroyRangeReverseINS_9allocatorINS_10shared_ptrI10BPTreeNodeEEEENS_16reverse_iteratorIPS5_EEEEED1B7v160006Ev, symObjAddr: 0x1D210, symBinAddr: 0x100029430, symSize: 0x2C }
  - { offsetInCU: 0x13ED9, offset: 0x29D4D, size: 0x8, addend: 0x0, symName: __ZNSt3__128__exception_guard_exceptionsINS_29_AllocatorDestroyRangeReverseINS_9allocatorINS_10shared_ptrI10BPTreeNodeEEEENS_16reverse_iteratorIPS5_EEEEEC1B7v160006ESA_, symObjAddr: 0x1D23C, symBinAddr: 0x10002945C, symSize: 0x34 }
  - { offsetInCU: 0x13F12, offset: 0x29D86, size: 0x8, addend: 0x0, symName: __ZNSt3__128__exception_guard_exceptionsINS_29_AllocatorDestroyRangeReverseINS_9allocatorINS_10shared_ptrI10BPTreeNodeEEEENS_16reverse_iteratorIPS5_EEEEEC2B7v160006ESA_, symObjAddr: 0x1D270, symBinAddr: 0x100029490, symSize: 0xA4 }
  - { offsetInCU: 0x13F4B, offset: 0x29DBF, size: 0x8, addend: 0x0, symName: __ZNSt3__129_AllocatorDestroyRangeReverseINS_9allocatorINS_10shared_ptrI10BPTreeNodeEEEENS_16reverse_iteratorIPS4_EEEC2B7v160006ERS5_RS8_SB_, symObjAddr: 0x1D314, symBinAddr: 0x100029534, symSize: 0x104 }
  - { offsetInCU: 0x13FA7, offset: 0x29E1B, size: 0x8, addend: 0x0, symName: __ZNSt3__119__to_address_helperINS_16reverse_iteratorIPNS_10shared_ptrI10BPTreeNodeEEEEvE6__callB7v160006ERKS6_, symObjAddr: 0x1D418, symBinAddr: 0x100029638, symSize: 0x58 }
  - { offsetInCU: 0x13FCA, offset: 0x29E3E, size: 0x8, addend: 0x0, symName: __ZNKSt3__116reverse_iteratorIPNS_10shared_ptrI10BPTreeNodeEEEptB7v160006Ev, symObjAddr: 0x1D470, symBinAddr: 0x100029690, symSize: 0x24 }
  - { offsetInCU: 0x13FF0, offset: 0x29E64, size: 0x8, addend: 0x0, symName: __ZNSt3__128__exception_guard_exceptionsINS_29_AllocatorDestroyRangeReverseINS_9allocatorINS_10shared_ptrI10BPTreeNodeEEEENS_16reverse_iteratorIPS5_EEEEED2B7v160006Ev, symObjAddr: 0x1D494, symBinAddr: 0x1000296B4, symSize: 0xA8 }
  - { offsetInCU: 0x1401A, offset: 0x29E8E, size: 0x8, addend: 0x0, symName: __ZNKSt3__129_AllocatorDestroyRangeReverseINS_9allocatorINS_10shared_ptrI10BPTreeNodeEEEENS_16reverse_iteratorIPS4_EEEclB7v160006Ev, symObjAddr: 0x1D53C, symBinAddr: 0x10002975C, symSize: 0x3A8 }
  - { offsetInCU: 0x14041, offset: 0x29EB5, size: 0x8, addend: 0x0, symName: __ZNSt3__116reverse_iteratorINS0_IPNS_10shared_ptrI10BPTreeNodeEEEEEC1B7v160006ES5_, symObjAddr: 0x1D954, symBinAddr: 0x100029B74, symSize: 0x248 }
  - { offsetInCU: 0x1407E, offset: 0x29EF2, size: 0x8, addend: 0x0, symName: __ZNSt3__116reverse_iteratorINS0_IPNS_10shared_ptrI10BPTreeNodeEEEEEppB7v160006Ev, symObjAddr: 0x1DE8C, symBinAddr: 0x10002A0AC, symSize: 0x30 }
  - { offsetInCU: 0x140A4, offset: 0x29F18, size: 0x8, addend: 0x0, symName: __ZNKSt3__116reverse_iteratorINS0_IPNS_10shared_ptrI10BPTreeNodeEEEEE4baseB7v160006Ev, symObjAddr: 0x1DEBC, symBinAddr: 0x10002A0DC, symSize: 0x20C }
  - { offsetInCU: 0x140D0, offset: 0x29F44, size: 0x8, addend: 0x0, symName: __ZNSt3__119__to_address_helperINS_16reverse_iteratorINS1_IPNS_10shared_ptrI10BPTreeNodeEEEEEEvE6__callB7v160006ERKS7_, symObjAddr: 0x1E0C8, symBinAddr: 0x10002A2E8, symSize: 0x58 }
  - { offsetInCU: 0x140F3, offset: 0x29F67, size: 0x8, addend: 0x0, symName: __ZNKSt3__116reverse_iteratorINS0_IPNS_10shared_ptrI10BPTreeNodeEEEEEptB7v160006Ev, symObjAddr: 0x1E120, symBinAddr: 0x10002A340, symSize: 0x24 }
  - { offsetInCU: 0x14119, offset: 0x29F8D, size: 0x8, addend: 0x0, symName: __ZNKSt3__116reverse_iteratorINS0_IPNS_10shared_ptrI10BPTreeNodeEEEEEdeB7v160006Ev, symObjAddr: 0x1E144, symBinAddr: 0x10002A364, symSize: 0x1EC }
  - { offsetInCU: 0x14153, offset: 0x29FC7, size: 0x8, addend: 0x0, symName: __ZNSt3__116reverse_iteratorIPNS_10shared_ptrI10BPTreeNodeEEEmmB7v160006Ev, symObjAddr: 0x1E330, symBinAddr: 0x10002A550, symSize: 0x6C }
  - { offsetInCU: 0x14179, offset: 0x29FED, size: 0x8, addend: 0x0, symName: __ZNSt3__116reverse_iteratorINS0_IPNS_10shared_ptrI10BPTreeNodeEEEEEC2B7v160006ES5_, symObjAddr: 0x1E39C, symBinAddr: 0x10002A5BC, symSize: 0x22C }
  - { offsetInCU: 0x141B6, offset: 0x2A02A, size: 0x8, addend: 0x0, symName: __ZNSt3__116reverse_iteratorIPNS_10shared_ptrI10BPTreeNodeEEEC2B7v160006ES4_, symObjAddr: 0x1E5C8, symBinAddr: 0x10002A7E8, symSize: 0xB8 }
  - { offsetInCU: 0x141EE, offset: 0x2A062, size: 0x8, addend: 0x0, symName: __ZNSt3__114__split_bufferINS_10shared_ptrI10BPTreeNodeEERNS_9allocatorIS3_EEED2Ev, symObjAddr: 0x1E680, symBinAddr: 0x10002A8A0, symSize: 0xEC }
  - { offsetInCU: 0x1421A, offset: 0x2A08E, size: 0x8, addend: 0x0, symName: __ZNSt3__114__split_bufferINS_10shared_ptrI10BPTreeNodeEERNS_9allocatorIS3_EEE5clearB7v160006Ev, symObjAddr: 0x1E76C, symBinAddr: 0x10002A98C, symSize: 0x68 }
  - { offsetInCU: 0x14240, offset: 0x2A0B4, size: 0x8, addend: 0x0, symName: __ZNKSt3__114__split_bufferINS_10shared_ptrI10BPTreeNodeEERNS_9allocatorIS3_EEE8capacityB7v160006Ev, symObjAddr: 0x1E7D4, symBinAddr: 0x10002A9F4, symSize: 0xBC }
  - { offsetInCU: 0x14266, offset: 0x2A0DA, size: 0x8, addend: 0x0, symName: __ZNSt3__114__split_bufferINS_10shared_ptrI10BPTreeNodeEERNS_9allocatorIS3_EEE17__destruct_at_endB7v160006EPS3_, symObjAddr: 0x1E890, symBinAddr: 0x10002AAB0, symSize: 0x2C }
  - { offsetInCU: 0x1429A, offset: 0x2A10E, size: 0x8, addend: 0x0, symName: __ZNSt3__114__split_bufferINS_10shared_ptrI10BPTreeNodeEERNS_9allocatorIS3_EEE17__destruct_at_endB7v160006EPS3_NS_17integral_constantIbLb0EEE, symObjAddr: 0x1E8BC, symBinAddr: 0x10002AADC, symSize: 0x120 }
  - { offsetInCU: 0x142DB, offset: 0x2A14F, size: 0x8, addend: 0x0, symName: __ZNKSt3__114__split_bufferINS_10shared_ptrI10BPTreeNodeEERNS_9allocatorIS3_EEE9__end_capB7v160006Ev, symObjAddr: 0x1E9DC, symBinAddr: 0x10002ABFC, symSize: 0x28 }
  - { offsetInCU: 0x14301, offset: 0x2A175, size: 0x8, addend: 0x0, symName: __ZNKSt3__117__compressed_pairIPNS_10shared_ptrI10BPTreeNodeEERNS_9allocatorIS3_EEE5firstB7v160006Ev, symObjAddr: 0x1EA04, symBinAddr: 0x10002AC24, symSize: 0x24 }
  - { offsetInCU: 0x14327, offset: 0x2A19B, size: 0x8, addend: 0x0, symName: __ZNSt3__16vectorIfNS_9allocatorIfEEE8__appendEm, symObjAddr: 0x1EA28, symBinAddr: 0x10002AC48, symSize: 0x404 }
  - { offsetInCU: 0x14389, offset: 0x2A1FD, size: 0x8, addend: 0x0, symName: __ZNSt3__16vectorIfNS_9allocatorIfEEE17__destruct_at_endB7v160006EPf, symObjAddr: 0x1EE2C, symBinAddr: 0x10002B04C, symSize: 0x94 }
  - { offsetInCU: 0x143CD, offset: 0x2A241, size: 0x8, addend: 0x0, symName: __ZNSt3__16vectorIfNS_9allocatorIfEEE18__construct_at_endEm, symObjAddr: 0x1EEC0, symBinAddr: 0x10002B0E0, symSize: 0x3F8 }
  - { offsetInCU: 0x14447, offset: 0x2A2BB, size: 0x8, addend: 0x0, symName: __ZNSt3__114__split_bufferIfRNS_9allocatorIfEEE18__construct_at_endEm, symObjAddr: 0x1F2B8, symBinAddr: 0x10002B4D8, symSize: 0x410 }
  - { offsetInCU: 0x14491, offset: 0x2A305, size: 0x8, addend: 0x0, symName: __ZNSt3__116allocator_traitsINS_9allocatorIfEEE9constructB7v160006IfJEvEEvRS2_PT_DpOT0_, symObjAddr: 0x1F6C8, symBinAddr: 0x10002B8E8, symSize: 0x2C }
  - { offsetInCU: 0x144D4, offset: 0x2A348, size: 0x8, addend: 0x0, symName: __ZNSt3__19allocatorIfE9constructB7v160006IfJEEEvPT_DpOT0_, symObjAddr: 0x1F6F4, symBinAddr: 0x10002B914, symSize: 0x90 }
  - { offsetInCU: 0x14521, offset: 0x2A395, size: 0x8, addend: 0x0, symName: __ZNSt3__114__split_bufferIfRNS_9allocatorIfEEE21_ConstructTransactionC1B7v160006EPPfm, symObjAddr: 0x1F784, symBinAddr: 0x10002B9A4, symSize: 0x3C }
  - { offsetInCU: 0x14567, offset: 0x2A3DB, size: 0x8, addend: 0x0, symName: __ZNSt3__114__split_bufferIfRNS_9allocatorIfEEE21_ConstructTransactionD1B7v160006Ev, symObjAddr: 0x1F7C0, symBinAddr: 0x10002B9E0, symSize: 0x2C }
  - { offsetInCU: 0x14591, offset: 0x2A405, size: 0x8, addend: 0x0, symName: __ZNSt3__114__split_bufferIfRNS_9allocatorIfEEE21_ConstructTransactionC2B7v160006EPPfm, symObjAddr: 0x1F7EC, symBinAddr: 0x10002BA0C, symSize: 0x184 }
  - { offsetInCU: 0x145D7, offset: 0x2A44B, size: 0x8, addend: 0x0, symName: __ZNSt3__114__split_bufferIfRNS_9allocatorIfEEE21_ConstructTransactionD2B7v160006Ev, symObjAddr: 0x1F970, symBinAddr: 0x10002BB90, symSize: 0xE0 }
  - { offsetInCU: 0x14601, offset: 0x2A475, size: 0x8, addend: 0x0, symName: __ZNSt3__16vectorIfNS_9allocatorIfEEE27__invalidate_iterators_pastB7v160006EPf, symObjAddr: 0x1FA50, symBinAddr: 0x10002BC70, symSize: 0x14 }
  - { offsetInCU: 0x14638, offset: 0x2A4AC, size: 0x8, addend: 0x0, symName: __ZNSt3__16vectorINS_10shared_ptrI10BPTreeNodeEENS_9allocatorIS3_EEE8__appendEm, symObjAddr: 0x1FA64, symBinAddr: 0x10002BC84, symSize: 0x404 }
  - { offsetInCU: 0x1469A, offset: 0x2A50E, size: 0x8, addend: 0x0, symName: __ZNSt3__16vectorINS_10shared_ptrI10BPTreeNodeEENS_9allocatorIS3_EEE17__destruct_at_endB7v160006EPS3_, symObjAddr: 0x1FE68, symBinAddr: 0x10002C088, symSize: 0x94 }
  - { offsetInCU: 0x146DE, offset: 0x2A552, size: 0x8, addend: 0x0, symName: __ZNSt3__16vectorINS_10shared_ptrI10BPTreeNodeEENS_9allocatorIS3_EEE18__construct_at_endEm, symObjAddr: 0x1FEFC, symBinAddr: 0x10002C11C, symSize: 0x3F8 }
  - { offsetInCU: 0x14758, offset: 0x2A5CC, size: 0x8, addend: 0x0, symName: __ZNSt3__114__split_bufferINS_10shared_ptrI10BPTreeNodeEERNS_9allocatorIS3_EEE18__construct_at_endEm, symObjAddr: 0x202F4, symBinAddr: 0x10002C514, symSize: 0x410 }
  - { offsetInCU: 0x147A2, offset: 0x2A616, size: 0x8, addend: 0x0, symName: __ZNSt3__116allocator_traitsINS_9allocatorINS_10shared_ptrI10BPTreeNodeEEEEE9constructB7v160006IS4_JEvEEvRS5_PT_DpOT0_, symObjAddr: 0x20704, symBinAddr: 0x10002C924, symSize: 0x2C }
  - { offsetInCU: 0x147E5, offset: 0x2A659, size: 0x8, addend: 0x0, symName: __ZNSt3__19allocatorINS_10shared_ptrI10BPTreeNodeEEE9constructB7v160006IS3_JEEEvPT_DpOT0_, symObjAddr: 0x20730, symBinAddr: 0x10002C950, symSize: 0x28 }
  - { offsetInCU: 0x14832, offset: 0x2A6A6, size: 0x8, addend: 0x0, symName: __ZNSt3__114__split_bufferINS_10shared_ptrI10BPTreeNodeEERNS_9allocatorIS3_EEE21_ConstructTransactionC1B7v160006EPPS3_m, symObjAddr: 0x20758, symBinAddr: 0x10002C978, symSize: 0x3C }
  - { offsetInCU: 0x14878, offset: 0x2A6EC, size: 0x8, addend: 0x0, symName: __ZNSt3__114__split_bufferINS_10shared_ptrI10BPTreeNodeEERNS_9allocatorIS3_EEE21_ConstructTransactionD1B7v160006Ev, symObjAddr: 0x20794, symBinAddr: 0x10002C9B4, symSize: 0x2C }
  - { offsetInCU: 0x148A2, offset: 0x2A716, size: 0x8, addend: 0x0, symName: __ZNSt3__114__split_bufferINS_10shared_ptrI10BPTreeNodeEERNS_9allocatorIS3_EEE21_ConstructTransactionC2B7v160006EPPS3_m, symObjAddr: 0x207C0, symBinAddr: 0x10002C9E0, symSize: 0x184 }
  - { offsetInCU: 0x148E8, offset: 0x2A75C, size: 0x8, addend: 0x0, symName: __ZNSt3__114__split_bufferINS_10shared_ptrI10BPTreeNodeEERNS_9allocatorIS3_EEE21_ConstructTransactionD2B7v160006Ev, symObjAddr: 0x20944, symBinAddr: 0x10002CB64, symSize: 0xE0 }
  - { offsetInCU: 0x14912, offset: 0x2A786, size: 0x8, addend: 0x0, symName: __ZNSt3__16vectorINS_10shared_ptrI10BPTreeNodeEENS_9allocatorIS3_EEE27__invalidate_iterators_pastB7v160006EPS3_, symObjAddr: 0x20A24, symBinAddr: 0x10002CC44, symSize: 0x14 }
  - { offsetInCU: 0x14949, offset: 0x2A7BD, size: 0x8, addend: 0x0, symName: __ZNSt3__16vectorIjNS_9allocatorIjEEE8__appendEm, symObjAddr: 0x20A38, symBinAddr: 0x10002CC58, symSize: 0x404 }
  - { offsetInCU: 0x149AB, offset: 0x2A81F, size: 0x8, addend: 0x0, symName: __ZNSt3__16vectorIjNS_9allocatorIjEEE17__destruct_at_endB7v160006EPj, symObjAddr: 0x20E3C, symBinAddr: 0x10002D05C, symSize: 0x94 }
  - { offsetInCU: 0x149EF, offset: 0x2A863, size: 0x8, addend: 0x0, symName: __ZNSt3__16vectorIjNS_9allocatorIjEEE18__construct_at_endEm, symObjAddr: 0x20ED0, symBinAddr: 0x10002D0F0, symSize: 0x3F8 }
  - { offsetInCU: 0x14A69, offset: 0x2A8DD, size: 0x8, addend: 0x0, symName: __ZNSt3__114__split_bufferIjRNS_9allocatorIjEEE18__construct_at_endEm, symObjAddr: 0x212C8, symBinAddr: 0x10002D4E8, symSize: 0x410 }
  - { offsetInCU: 0x14AB3, offset: 0x2A927, size: 0x8, addend: 0x0, symName: __ZNSt3__116allocator_traitsINS_9allocatorIjEEE9constructB7v160006IjJEvEEvRS2_PT_DpOT0_, symObjAddr: 0x216D8, symBinAddr: 0x10002D8F8, symSize: 0x2C }
  - { offsetInCU: 0x14AF6, offset: 0x2A96A, size: 0x8, addend: 0x0, symName: __ZNSt3__19allocatorIjE9constructB7v160006IjJEEEvPT_DpOT0_, symObjAddr: 0x21704, symBinAddr: 0x10002D924, symSize: 0x8C }
  - { offsetInCU: 0x14B43, offset: 0x2A9B7, size: 0x8, addend: 0x0, symName: __ZNSt3__114__split_bufferIjRNS_9allocatorIjEEE21_ConstructTransactionC1B7v160006EPPjm, symObjAddr: 0x21790, symBinAddr: 0x10002D9B0, symSize: 0x3C }
  - { offsetInCU: 0x14B89, offset: 0x2A9FD, size: 0x8, addend: 0x0, symName: __ZNSt3__114__split_bufferIjRNS_9allocatorIjEEE21_ConstructTransactionD1B7v160006Ev, symObjAddr: 0x217CC, symBinAddr: 0x10002D9EC, symSize: 0x2C }
  - { offsetInCU: 0x14BB3, offset: 0x2AA27, size: 0x8, addend: 0x0, symName: __ZNSt3__114__split_bufferIjRNS_9allocatorIjEEE21_ConstructTransactionC2B7v160006EPPjm, symObjAddr: 0x217F8, symBinAddr: 0x10002DA18, symSize: 0x184 }
  - { offsetInCU: 0x14BF9, offset: 0x2AA6D, size: 0x8, addend: 0x0, symName: __ZNSt3__114__split_bufferIjRNS_9allocatorIjEEE21_ConstructTransactionD2B7v160006Ev, symObjAddr: 0x2197C, symBinAddr: 0x10002DB9C, symSize: 0xE0 }
  - { offsetInCU: 0x14C23, offset: 0x2AA97, size: 0x8, addend: 0x0, symName: __ZNSt3__16vectorIjNS_9allocatorIjEEE27__invalidate_iterators_pastB7v160006EPj, symObjAddr: 0x21A5C, symBinAddr: 0x10002DC7C, symSize: 0x14 }
  - { offsetInCU: 0x14C5A, offset: 0x2AACE, size: 0x8, addend: 0x0, symName: __ZNSt3__16vectorINS_10shared_ptrI10BPTreeNodeEENS_9allocatorIS3_EEE11__make_iterB7v160006EPS3_, symObjAddr: 0x21A70, symBinAddr: 0x10002DC90, symSize: 0x200 }
  - { offsetInCU: 0x14C91, offset: 0x2AB05, size: 0x8, addend: 0x0, symName: __ZNSt3__111__wrap_iterIPNS_10shared_ptrI10BPTreeNodeEEEC1B7v160006EPKvS4_, symObjAddr: 0x21C70, symBinAddr: 0x10002DE90, symSize: 0x3C }
  - { offsetInCU: 0x14CD7, offset: 0x2AB4B, size: 0x8, addend: 0x0, symName: __ZNSt3__111__wrap_iterIPNS_10shared_ptrI10BPTreeNodeEEEC2B7v160006EPKvS4_, symObjAddr: 0x21CAC, symBinAddr: 0x10002DECC, symSize: 0x74 }
  - { offsetInCU: 0x14D1D, offset: 0x2AB91, size: 0x8, addend: 0x0, symName: __ZNSt3__111__wrap_iterIPNS_10shared_ptrI10BPTreeNodeEEEpLB7v160006El, symObjAddr: 0x21D20, symBinAddr: 0x10002DF40, symSize: 0x78 }
  - { offsetInCU: 0x14D51, offset: 0x2ABC5, size: 0x8, addend: 0x0, symName: __ZNSt3__16vectorINS_10shared_ptrI10BPTreeNodeEENS_9allocatorIS3_EEE12__move_rangeEPS3_S7_S7_, symObjAddr: 0x21DE0, symBinAddr: 0x10002E000, symSize: 0x464 }
  - { offsetInCU: 0x14E19, offset: 0x2AC8D, size: 0x8, addend: 0x0, symName: __ZNSt3__114pointer_traitsIPKNS_10shared_ptrI10BPTreeNodeEEE10pointer_toB7v160006ERS4_, symObjAddr: 0x22244, symBinAddr: 0x10002E464, symSize: 0x14 }
  - { offsetInCU: 0x14E3C, offset: 0x2ACB0, size: 0x8, addend: 0x0, symName: __ZNSt3__114__split_bufferINS_10shared_ptrI10BPTreeNodeEERNS_9allocatorIS3_EEE9push_backB7v160006ERKS3_, symObjAddr: 0x22258, symBinAddr: 0x10002E478, symSize: 0xA50 }
  - { offsetInCU: 0x14EBB, offset: 0x2AD2F, size: 0x8, addend: 0x0, symName: __ZNKSt3__111__wrap_iterIPKNS_10shared_ptrI10BPTreeNodeEEE4baseB7v160006Ev, symObjAddr: 0x23328, symBinAddr: 0x10002F548, symSize: 0x60 }
  - { offsetInCU: 0x14EE1, offset: 0x2AD55, size: 0x8, addend: 0x0, symName: __ZNKSt3__111__wrap_iterIPNS_10shared_ptrI10BPTreeNodeEEE4baseB7v160006Ev, symObjAddr: 0x23388, symBinAddr: 0x10002F5A8, symSize: 0x60 }
  - { offsetInCU: 0x14F07, offset: 0x2AD7B, size: 0x8, addend: 0x0, symName: __ZNSt3__116allocator_traitsINS_9allocatorINS_10shared_ptrI10BPTreeNodeEEEEE9constructB7v160006IS4_JS4_EvEEvRS5_PT_DpOT0_, symObjAddr: 0x233E8, symBinAddr: 0x10002F608, symSize: 0x34 }
  - { offsetInCU: 0x14F5E, offset: 0x2ADD2, size: 0x8, addend: 0x0, symName: __ZNSt3__19allocatorINS_10shared_ptrI10BPTreeNodeEEE9constructB7v160006IS3_JS3_EEEvPT_DpOT0_, symObjAddr: 0x23670, symBinAddr: 0x10002F890, symSize: 0x30 }
  - { offsetInCU: 0x14FB4, offset: 0x2AE28, size: 0x8, addend: 0x0, symName: __ZNSt3__110shared_ptrI10BPTreeNodeEC1B7v160006EOS2_, symObjAddr: 0x236A0, symBinAddr: 0x10002F8C0, symSize: 0x34 }
  - { offsetInCU: 0x14FED, offset: 0x2AE61, size: 0x8, addend: 0x0, symName: __ZNSt3__110shared_ptrI10BPTreeNodeEC2B7v160006EOS2_, symObjAddr: 0x236D4, symBinAddr: 0x10002F8F4, symSize: 0x1B8 }
  - { offsetInCU: 0x15049, offset: 0x2AEBD, size: 0x8, addend: 0x0, symName: __ZNKSt3__120__move_backward_loopINS_17_ClassicAlgPolicyEEclB7v160006IPNS_10shared_ptrI10BPTreeNodeEES7_S7_EENS_4pairIT_T1_EES9_T0_SA_, symObjAddr: 0x24C20, symBinAddr: 0x100030E40, symSize: 0x4F0 }
  - { offsetInCU: 0x150E2, offset: 0x2AF56, size: 0x8, addend: 0x0, symName: __ZNSt3__18_IterOpsINS_17_ClassicAlgPolicyEE4nextB7v160006IPNS_10shared_ptrI10BPTreeNodeEEEET_S8_S8_, symObjAddr: 0x253C8, symBinAddr: 0x1000315E8, symSize: 0x18 }
  - { offsetInCU: 0x15119, offset: 0x2AF8D, size: 0x8, addend: 0x0, symName: __ZNSt3__18_IterOpsINS_17_ClassicAlgPolicyEE11__iter_moveB7v160006IRPNS_10shared_ptrI10BPTreeNodeEEEENS_9enable_ifIXsr12is_referenceIDTdeclsr3stdE7declvalIRT_EEEEE5valueEDTclsr3stdE4movedeclsr3stdE7declvalISB_EEEEE4typeEOSA_, symObjAddr: 0x253E0, symBinAddr: 0x100031600, symSize: 0x6C }
  - { offsetInCU: 0x15145, offset: 0x2AFB9, size: 0x8, addend: 0x0, symName: __ZNSt3__18_IterOpsINS_17_ClassicAlgPolicyEE25__validate_iter_referenceB7v160006IRPNS_10shared_ptrI10BPTreeNodeEEEEvv, symObjAddr: 0x2544C, symBinAddr: 0x10003166C, symSize: 0x4 }
  - { offsetInCU: 0x15163, offset: 0x2AFD7, size: 0x8, addend: 0x0, symName: __ZNSt3__118__unwrap_iter_implIPNS_10shared_ptrI10BPTreeNodeEELb1EE8__unwrapB7v160006ES4_, symObjAddr: 0x25450, symBinAddr: 0x100031670, symSize: 0x24 }
  - { offsetInCU: 0x15186, offset: 0x2AFFA, size: 0x8, addend: 0x0, symName: __ZNSt3__14pairIPNS_10shared_ptrI10BPTreeNodeEES4_EC1B7v160006ERKS4_S7_, symObjAddr: 0x25474, symBinAddr: 0x100031694, symSize: 0x3C }
  - { offsetInCU: 0x151CC, offset: 0x2B040, size: 0x8, addend: 0x0, symName: __ZNSt3__14pairIPNS_10shared_ptrI10BPTreeNodeEES4_EC2B7v160006ERKS4_S7_, symObjAddr: 0x254B0, symBinAddr: 0x1000316D0, symSize: 0x138 }
  - { offsetInCU: 0x15212, offset: 0x2B086, size: 0x8, addend: 0x0, symName: __ZNSt3__118__unwrap_iter_implIPNS_10shared_ptrI10BPTreeNodeEELb1EE8__rewrapB7v160006ES4_S4_, symObjAddr: 0x255E8, symBinAddr: 0x100031808, symSize: 0x50 }
  - { offsetInCU: 0x15243, offset: 0x2B0B7, size: 0x8, addend: 0x0, symName: __ZNSt3__114__split_bufferINS_10shared_ptrI10BPTreeNodeEERNS_9allocatorIS3_EEE18__construct_at_endINS_13move_iteratorIPS3_EEEENS_9enable_ifIXsr27__is_cpp17_forward_iteratorIT_EE5valueEvE4typeESD_SD_, symObjAddr: 0x2588C, symBinAddr: 0x100031AAC, symSize: 0x614 }
  - { offsetInCU: 0x152AC, offset: 0x2B120, size: 0x8, addend: 0x0, symName: __ZNSt3__113move_iteratorIPNS_10shared_ptrI10BPTreeNodeEEEC1B7v160006ES4_, symObjAddr: 0x25EA0, symBinAddr: 0x1000320C0, symSize: 0x34 }
  - { offsetInCU: 0x152E4, offset: 0x2B158, size: 0x8, addend: 0x0, symName: __ZNKSt3__111__move_loopINS_17_ClassicAlgPolicyEEclB7v160006IPNS_10shared_ptrI10BPTreeNodeEES7_S7_EENS_4pairIT_T1_EES9_T0_SA_, symObjAddr: 0x26F18, symBinAddr: 0x100033138, symSize: 0x428 }
  - { offsetInCU: 0x15359, offset: 0x2B1CD, size: 0x8, addend: 0x0, symName: __ZNKSt3__113move_iteratorIPNS_10shared_ptrI10BPTreeNodeEEEdeB7v160006Ev, symObjAddr: 0x27690, symBinAddr: 0x1000338B0, symSize: 0x60 }
  - { offsetInCU: 0x1537F, offset: 0x2B1F3, size: 0x8, addend: 0x0, symName: __ZNSt3__113move_iteratorIPNS_10shared_ptrI10BPTreeNodeEEEppB7v160006Ev, symObjAddr: 0x276F0, symBinAddr: 0x100033910, symSize: 0x68 }
  - { offsetInCU: 0x153A5, offset: 0x2B219, size: 0x8, addend: 0x0, symName: __ZNKSt3__113move_iteratorIPNS_10shared_ptrI10BPTreeNodeEEE4baseB7v160006Ev, symObjAddr: 0x27A14, symBinAddr: 0x100033C34, symSize: 0x60 }
  - { offsetInCU: 0x153CB, offset: 0x2B23F, size: 0x8, addend: 0x0, symName: __ZNSt3__113move_iteratorIPNS_10shared_ptrI10BPTreeNodeEEEC2B7v160006ES4_, symObjAddr: 0x27A74, symBinAddr: 0x100033C94, symSize: 0x70 }
  - { offsetInCU: 0x15403, offset: 0x2B277, size: 0x8, addend: 0x0, symName: __ZNSt3__129_AllocatorDestroyRangeReverseINS_9allocatorINS_10shared_ptrI10BPTreeNodeEEEEPS4_EC1B7v160006ERS5_RS6_S9_, symObjAddr: 0x28210, symBinAddr: 0x100034430, symSize: 0x44 }
  - { offsetInCU: 0x1545A, offset: 0x2B2CE, size: 0x8, addend: 0x0, symName: __ZNSt3__128__exception_guard_exceptionsINS_29_AllocatorDestroyRangeReverseINS_9allocatorINS_10shared_ptrI10BPTreeNodeEEEEPS5_EEE10__completeB7v160006Ev, symObjAddr: 0x28254, symBinAddr: 0x100034474, symSize: 0x8C }
  - { offsetInCU: 0x15480, offset: 0x2B2F4, size: 0x8, addend: 0x0, symName: __ZNSt3__128__exception_guard_exceptionsINS_29_AllocatorDestroyRangeReverseINS_9allocatorINS_10shared_ptrI10BPTreeNodeEEEEPS5_EEED1B7v160006Ev, symObjAddr: 0x282E0, symBinAddr: 0x100034500, symSize: 0x2C }
  - { offsetInCU: 0x154AA, offset: 0x2B31E, size: 0x8, addend: 0x0, symName: __ZNSt3__128__exception_guard_exceptionsINS_29_AllocatorDestroyRangeReverseINS_9allocatorINS_10shared_ptrI10BPTreeNodeEEEEPS5_EEEC1B7v160006ES8_, symObjAddr: 0x2830C, symBinAddr: 0x10003452C, symSize: 0x34 }
  - { offsetInCU: 0x154E3, offset: 0x2B357, size: 0x8, addend: 0x0, symName: __ZNSt3__128__exception_guard_exceptionsINS_29_AllocatorDestroyRangeReverseINS_9allocatorINS_10shared_ptrI10BPTreeNodeEEEEPS5_EEEC2B7v160006ES8_, symObjAddr: 0x28340, symBinAddr: 0x100034560, symSize: 0xA4 }
  - { offsetInCU: 0x1551C, offset: 0x2B390, size: 0x8, addend: 0x0, symName: __ZNSt3__129_AllocatorDestroyRangeReverseINS_9allocatorINS_10shared_ptrI10BPTreeNodeEEEEPS4_EC2B7v160006ERS5_RS6_S9_, symObjAddr: 0x283E4, symBinAddr: 0x100034604, symSize: 0x104 }
  - { offsetInCU: 0x15573, offset: 0x2B3E7, size: 0x8, addend: 0x0, symName: __ZNSt3__128__exception_guard_exceptionsINS_29_AllocatorDestroyRangeReverseINS_9allocatorINS_10shared_ptrI10BPTreeNodeEEEEPS5_EEED2B7v160006Ev, symObjAddr: 0x284E8, symBinAddr: 0x100034708, symSize: 0xA8 }
  - { offsetInCU: 0x1559D, offset: 0x2B411, size: 0x8, addend: 0x0, symName: __ZNKSt3__129_AllocatorDestroyRangeReverseINS_9allocatorINS_10shared_ptrI10BPTreeNodeEEEEPS4_EclB7v160006Ev, symObjAddr: 0x28590, symBinAddr: 0x1000347B0, symSize: 0x39C }
  - { offsetInCU: 0x155C4, offset: 0x2B438, size: 0x8, addend: 0x0, symName: __ZNSt3__111__wrap_iterIPKNS_10shared_ptrI10BPTreeNodeEEEC2B7v160006IPS3_EERKNS0_IT_EEPNS_9enable_ifIXsr14is_convertibleIS9_S5_EE5valueEvE4typeE, symObjAddr: 0x28BE4, symBinAddr: 0x100034E04, symSize: 0x84 }
  - { offsetInCU: 0x15610, offset: 0x2B484, size: 0x8, addend: 0x0, symName: __ZNSt3__16vectorIfNS_9allocatorIfEEE11__make_iterB7v160006EPf, symObjAddr: 0x28C68, symBinAddr: 0x100034E88, symSize: 0x200 }
  - { offsetInCU: 0x15647, offset: 0x2B4BB, size: 0x8, addend: 0x0, symName: __ZNSt3__111__wrap_iterIPfEC1B7v160006EPKvS1_, symObjAddr: 0x28E68, symBinAddr: 0x100035088, symSize: 0x3C }
  - { offsetInCU: 0x1568D, offset: 0x2B501, size: 0x8, addend: 0x0, symName: __ZNSt3__111__wrap_iterIPfEC2B7v160006EPKvS1_, symObjAddr: 0x28EA4, symBinAddr: 0x1000350C4, symSize: 0x74 }
  - { offsetInCU: 0x156D3, offset: 0x2B547, size: 0x8, addend: 0x0, symName: __ZNSt3__111__wrap_iterIPfEpLB7v160006El, symObjAddr: 0x28F18, symBinAddr: 0x100035138, symSize: 0x78 }
  - { offsetInCU: 0x15707, offset: 0x2B57B, size: 0x8, addend: 0x0, symName: __ZNSt3__16vectorIfNS_9allocatorIfEEE12__move_rangeEPfS4_S4_, symObjAddr: 0x28FD8, symBinAddr: 0x1000351F8, symSize: 0x464 }
  - { offsetInCU: 0x157CF, offset: 0x2B643, size: 0x8, addend: 0x0, symName: __ZNSt3__114pointer_traitsIPKfE10pointer_toB7v160006ERS1_, symObjAddr: 0x2943C, symBinAddr: 0x10003565C, symSize: 0x14 }
  - { offsetInCU: 0x157F2, offset: 0x2B666, size: 0x8, addend: 0x0, symName: __ZNSt3__114__split_bufferIfRNS_9allocatorIfEEE9push_backB7v160006ERKf, symObjAddr: 0x29450, symBinAddr: 0x100035670, symSize: 0xA50 }
  - { offsetInCU: 0x15871, offset: 0x2B6E5, size: 0x8, addend: 0x0, symName: __ZNKSt3__111__wrap_iterIPKfE4baseB7v160006Ev, symObjAddr: 0x2A520, symBinAddr: 0x100036740, symSize: 0x60 }
  - { offsetInCU: 0x15897, offset: 0x2B70B, size: 0x8, addend: 0x0, symName: __ZNKSt3__111__wrap_iterIPfE4baseB7v160006Ev, symObjAddr: 0x2A580, symBinAddr: 0x1000367A0, symSize: 0x60 }
  - { offsetInCU: 0x158BD, offset: 0x2B731, size: 0x8, addend: 0x0, symName: __ZNSt3__116allocator_traitsINS_9allocatorIfEEE9constructB7v160006IfJfEvEEvRS2_PT_DpOT0_, symObjAddr: 0x2A5E0, symBinAddr: 0x100036800, symSize: 0x34 }
  - { offsetInCU: 0x15914, offset: 0x2B788, size: 0x8, addend: 0x0, symName: __ZNSt3__19allocatorIfE9constructB7v160006IfJfEEEvPT_DpOT0_, symObjAddr: 0x2A868, symBinAddr: 0x100036A88, symSize: 0x104 }
  - { offsetInCU: 0x1598D, offset: 0x2B801, size: 0x8, addend: 0x0, symName: __ZNKSt3__123__move_backward_trivialclB7v160006IffLi0EEENS_4pairIPT_PT0_EES4_S4_S6_, symObjAddr: 0x2B6C8, symBinAddr: 0x1000378E8, symSize: 0x230 }
  - { offsetInCU: 0x159FA, offset: 0x2B86E, size: 0x8, addend: 0x0, symName: __ZNSt3__14pairIPfS1_EC1B7v160006ERKS1_S4_, symObjAddr: 0x2C19C, symBinAddr: 0x1000383BC, symSize: 0x3C }
  - { offsetInCU: 0x15A40, offset: 0x2B8B4, size: 0x8, addend: 0x0, symName: __ZNSt3__14pairIPfS1_EC2B7v160006ERKS1_S4_, symObjAddr: 0x2C1D8, symBinAddr: 0x1000383F8, symSize: 0x138 }
  - { offsetInCU: 0x15A86, offset: 0x2B8FA, size: 0x8, addend: 0x0, symName: __ZNSt3__118__unwrap_iter_implIPfLb1EE8__unwrapB7v160006ES1_, symObjAddr: 0x2C310, symBinAddr: 0x100038530, symSize: 0x24 }
  - { offsetInCU: 0x15AA9, offset: 0x2B91D, size: 0x8, addend: 0x0, symName: __ZNSt3__118__unwrap_iter_implIPfLb1EE8__rewrapB7v160006ES1_S1_, symObjAddr: 0x2C334, symBinAddr: 0x100038554, symSize: 0x50 }
  - { offsetInCU: 0x15ADA, offset: 0x2B94E, size: 0x8, addend: 0x0, symName: __ZNSt3__114__split_bufferIfRNS_9allocatorIfEEE18__construct_at_endINS_13move_iteratorIPfEEEENS_9enable_ifIXsr27__is_cpp17_forward_iteratorIT_EE5valueEvE4typeESA_SA_, symObjAddr: 0x2C5D8, symBinAddr: 0x1000387F8, symSize: 0x614 }
  - { offsetInCU: 0x15B43, offset: 0x2B9B7, size: 0x8, addend: 0x0, symName: __ZNSt3__113move_iteratorIPfEC1B7v160006ES1_, symObjAddr: 0x2CBEC, symBinAddr: 0x100038E0C, symSize: 0x34 }
  - { offsetInCU: 0x15B85, offset: 0x2B9F9, size: 0x8, addend: 0x0, symName: __ZNKSt3__114__move_trivialclB7v160006IffLi0EEENS_4pairIPT_PT0_EES4_S4_S6_, symObjAddr: 0x2D62C, symBinAddr: 0x10003984C, symSize: 0x230 }
  - { offsetInCU: 0x15BF2, offset: 0x2BA66, size: 0x8, addend: 0x0, symName: __ZNKSt3__113move_iteratorIPfEdeB7v160006Ev, symObjAddr: 0x2E170, symBinAddr: 0x10003A390, symSize: 0x60 }
  - { offsetInCU: 0x15C18, offset: 0x2BA8C, size: 0x8, addend: 0x0, symName: __ZNSt3__113move_iteratorIPfEppB7v160006Ev, symObjAddr: 0x2E1D0, symBinAddr: 0x10003A3F0, symSize: 0x68 }
  - { offsetInCU: 0x15C3E, offset: 0x2BAB2, size: 0x8, addend: 0x0, symName: __ZNKSt3__113move_iteratorIPfE4baseB7v160006Ev, symObjAddr: 0x2E4F4, symBinAddr: 0x10003A714, symSize: 0x60 }
  - { offsetInCU: 0x15C64, offset: 0x2BAD8, size: 0x8, addend: 0x0, symName: __ZNSt3__113move_iteratorIPfEC2B7v160006ES1_, symObjAddr: 0x2E554, symBinAddr: 0x10003A774, symSize: 0x70 }
  - { offsetInCU: 0x15C9C, offset: 0x2BB10, size: 0x8, addend: 0x0, symName: __ZNSt3__111__wrap_iterIPKfEC2B7v160006IPfEERKNS0_IT_EEPNS_9enable_ifIXsr14is_convertibleIS6_S2_EE5valueEvE4typeE, symObjAddr: 0x2E668, symBinAddr: 0x10003A888, symSize: 0x84 }
  - { offsetInCU: 0x15CE8, offset: 0x2BB5C, size: 0x8, addend: 0x0, symName: __ZNSt3__110shared_ptrI10BPTreeNodeEC1B7v160006IS1_vEERKNS_8weak_ptrIT_EE, symObjAddr: 0x2E6EC, symBinAddr: 0x10003A90C, symSize: 0x34 }
  - { offsetInCU: 0x15D2B, offset: 0x2BB9F, size: 0x8, addend: 0x0, symName: __ZNSt3__110shared_ptrI10BPTreeNodeEC2B7v160006IS1_vEERKNS_8weak_ptrIT_EE, symObjAddr: 0x2E720, symBinAddr: 0x10003A940, symSize: 0x238 }
  - { offsetInCU: 0x15D82, offset: 0x2BBF6, size: 0x8, addend: 0x0, symName: __ZNSt3__112bad_weak_ptrC1Ev, symObjAddr: 0x2E9A4, symBinAddr: 0x10003ABC4, symSize: 0x2C }
  - { offsetInCU: 0x15DAC, offset: 0x2BC20, size: 0x8, addend: 0x0, symName: __ZNSt3__112bad_weak_ptrC2Ev, symObjAddr: 0x2E9D0, symBinAddr: 0x10003ABF0, symSize: 0x84 }
  - { offsetInCU: 0x15DD6, offset: 0x2BC4A, size: 0x8, addend: 0x0, symName: __ZNSt9exceptionC2B7v160006Ev, symObjAddr: 0x2EA54, symBinAddr: 0x10003AC74, symSize: 0x74 }
  - { offsetInCU: 0x15E00, offset: 0x2BC74, size: 0x8, addend: 0x0, symName: __ZNSt3__110shared_ptrI10BPTreeNodeEC2B7v160006EDn, symObjAddr: 0x2EAC8, symBinAddr: 0x10003ACE8, symSize: 0xA0 }
  - { offsetInCU: 0x15E36, offset: 0x2BCAA, size: 0x8, addend: 0x0, symName: __ZNSt3__110shared_ptrI10BPTreeNodeEC2B7v160006Ev, symObjAddr: 0x2EB68, symBinAddr: 0x10003AD88, symSize: 0x9C }
  - { offsetInCU: 0x15E65, offset: 0x2BCD9, size: 0x8, addend: 0x0, symName: __ZNSt3__120__shared_ptr_emplaceI10BPTreeNodeNS_9allocatorIS1_EEEC1B7v160006IJbEEES3_DpOT_, symObjAddr: 0x2EF04, symBinAddr: 0x10003B124, symSize: 0x34 }
  - { offsetInCU: 0x15EB8, offset: 0x2BD2C, size: 0x8, addend: 0x0, symName: __ZNSt3__120__shared_ptr_emplaceI10BPTreeNodeNS_9allocatorIS1_EEEC2B7v160006IJbEEES3_DpOT_, symObjAddr: 0x2EF38, symBinAddr: 0x10003B158, symSize: 0x364 }
  - { offsetInCU: 0x15F11, offset: 0x2BD85, size: 0x8, addend: 0x0, symName: __ZNSt3__110shared_ptrI10BPTreeNodeE4swapB7v160006ERS2_, symObjAddr: 0x2F29C, symBinAddr: 0x10003B4BC, symSize: 0x44 }
  - { offsetInCU: 0x15F46, offset: 0x2BDBA, size: 0x8, addend: 0x0, symName: __ZNKSt3__110shared_ptrI10BPTreeNodeEcvbB7v160006Ev, symObjAddr: 0x2F2E0, symBinAddr: 0x10003B500, symSize: 0x30 }
  - { offsetInCU: 0x15F6C, offset: 0x2BDE0, size: 0x8, addend: 0x0, symName: __ZNKSt3__110shared_ptrI10BPTreeNodeE3getB7v160006Ev, symObjAddr: 0x2F310, symBinAddr: 0x10003B530, symSize: 0x60 }
  - { offsetInCU: 0x8D, offset: 0x2C0B3, size: 0x8, addend: 0x0, symName: _.str, symObjAddr: 0x3140, symBinAddr: 0x10003F460, symSize: 0x0 }
  - { offsetInCU: 0xBD, offset: 0x2C0E3, size: 0x8, addend: 0x0, symName: _.str.1, symObjAddr: 0x3160, symBinAddr: 0x10003F480, symSize: 0x0 }
  - { offsetInCU: 0xDA, offset: 0x2C100, size: 0x8, addend: 0x0, symName: _.str.2, symObjAddr: 0x3180, symBinAddr: 0x10003F4A0, symSize: 0x0 }
  - { offsetInCU: 0xF7, offset: 0x2C11D, size: 0x8, addend: 0x0, symName: _.str.3, symObjAddr: 0x31A0, symBinAddr: 0x10003F4C0, symSize: 0x0 }
  - { offsetInCU: 0x114, offset: 0x2C13A, size: 0x8, addend: 0x0, symName: _.str.4, symObjAddr: 0x31C0, symBinAddr: 0x10003F4E0, symSize: 0x0 }
  - { offsetInCU: 0x131, offset: 0x2C157, size: 0x8, addend: 0x0, symName: _.str.5, symObjAddr: 0x31E0, symBinAddr: 0x10003F500, symSize: 0x0 }
  - { offsetInCU: 0x142, offset: 0x2C168, size: 0x8, addend: 0x0, symName: _.str.6, symObjAddr: 0x3200, symBinAddr: 0x10003F520, symSize: 0x0 }
  - { offsetInCU: 0x153, offset: 0x2C179, size: 0x8, addend: 0x0, symName: _.str.7, symObjAddr: 0x3220, symBinAddr: 0x10003F540, symSize: 0x0 }
  - { offsetInCU: 0x164, offset: 0x2C18A, size: 0x8, addend: 0x0, symName: _.str.8, symObjAddr: 0x3240, symBinAddr: 0x10003F560, symSize: 0x0 }
  - { offsetInCU: 0x175, offset: 0x2C19B, size: 0x8, addend: 0x0, symName: _.str.9, symObjAddr: 0x3260, symBinAddr: 0x10003F580, symSize: 0x0 }
  - { offsetInCU: 0x192, offset: 0x2C1B8, size: 0x8, addend: 0x0, symName: _.str.10, symObjAddr: 0x32A0, symBinAddr: 0x10003F5C0, symSize: 0x0 }
  - { offsetInCU: 0x1AF, offset: 0x2C1D5, size: 0x8, addend: 0x0, symName: _.str.11, symObjAddr: 0x32C0, symBinAddr: 0x10003F5E0, symSize: 0x0 }
  - { offsetInCU: 0x1F1, offset: 0x2C217, size: 0x8, addend: 0x0, symName: _.str.12, symObjAddr: 0x32E0, symBinAddr: 0x10003F600, symSize: 0x0 }
  - { offsetInCU: 0x20E, offset: 0x2C234, size: 0x8, addend: 0x0, symName: _.str.13, symObjAddr: 0x3320, symBinAddr: 0x10003F640, symSize: 0x0 }
  - { offsetInCU: 0x22B, offset: 0x2C251, size: 0x8, addend: 0x0, symName: _.str.14, symObjAddr: 0x3360, symBinAddr: 0x10003F680, symSize: 0x0 }
  - { offsetInCU: 0x248, offset: 0x2C26E, size: 0x8, addend: 0x0, symName: _.str.15, symObjAddr: 0x33C0, symBinAddr: 0x10003F6E0, symSize: 0x0 }
  - { offsetInCU: 0x265, offset: 0x2C28B, size: 0x8, addend: 0x0, symName: _.str.16, symObjAddr: 0x33E0, symBinAddr: 0x10003F700, symSize: 0x0 }
  - { offsetInCU: 0x276, offset: 0x2C29C, size: 0x8, addend: 0x0, symName: _.str.17, symObjAddr: 0x3400, symBinAddr: 0x10003F720, symSize: 0x0 }
  - { offsetInCU: 0x293, offset: 0x2C2B9, size: 0x8, addend: 0x0, symName: _.str.18, symObjAddr: 0x3420, symBinAddr: 0x10003F740, symSize: 0x0 }
  - { offsetInCU: 0x2B18, offset: 0x2EB3E, size: 0x8, addend: 0x0, symName: __ZNK6Record9serializeEPh, symObjAddr: 0x0, symBinAddr: 0x10003B628, symSize: 0x198 }
  - { offsetInCU: 0x2B5D, offset: 0x2EB83, size: 0x8, addend: 0x0, symName: __ZN6Record11deserializeEPKh, symObjAddr: 0x198, symBinAddr: 0x10003B7C0, symSize: 0x314 }
  - { offsetInCU: 0x2BA2, offset: 0x2EBC8, size: 0x8, addend: 0x0, symName: __ZNK6Record5printEv, symObjAddr: 0x4AC, symBinAddr: 0x10003BAD4, symSize: 0x380 }
  - { offsetInCU: 0x2BCF, offset: 0x2EBF5, size: 0x8, addend: 0x0, symName: __ZNK5Block9serializeEPh, symObjAddr: 0x974, symBinAddr: 0x10003BE54, symSize: 0x168 }
  - { offsetInCU: 0x2C31, offset: 0x2EC57, size: 0x8, addend: 0x0, symName: __ZN5Block11deserializeEPKh, symObjAddr: 0xADC, symBinAddr: 0x10003BFBC, symSize: 0x2B4 }
  - { offsetInCU: 0x2C93, offset: 0x2ECB9, size: 0x8, addend: 0x0, symName: __ZNK5Block5printEv, symObjAddr: 0xD90, symBinAddr: 0x10003C270, symSize: 0x1A8 }
...
